(dp0
S'METTS MARK'
p1
(dp2
S'to_messages'
p3
F0.04969520275642725
sS'deferral_payments'
p4
S'NaN'
p5
sS'expenses'
p6
F0.4118321195022199
sS'poi'
p7
I00
sS'fraction_shared_receipt'
p8
F0.034482758620689655
sS'deferred_income'
p9
g5
sS'email_address'
p10
S'mark.metts@enron.com'
p11
sS'long_term_incentive'
p12
g5
sS'fraction_from_poi'
p13
F0.04708798017348203
sS'restricted_stock_deferred'
p14
g5
sS'shared_receipt_with_poi'
p15
F0.12683457148034064
sS'loan_advances'
p16
g5
sS'from_messages'
p17
F0.0011841738645862357
sS'other'
p18
F0.0001677650385960943
sS'director_fees'
p19
g5
sS'bonus'
p20
F0.06683480453972257
sS'total_stock_value'
p21
F0.012799625895430116
sS'from_poi_to_this_person'
p22
F0.07196969696969698
sS'from_this_person_to_poi'
p23
F0.0016420361247947454
sS'restricted_stock'
p24
F0.03751736173109885
sS'salary'
p25
F0.32887760953779366
sS'total_payments'
p26
F0.010251860171981084
sS'fraction_to_poi'
p27
F0.034482758620689655
sS'exercised_stock_options'
p28
g5
ssS'BAXTER JOHN C'
p29
(dp30
g3
g5
sg4
F0.20061866054819194
sg6
F0.048343284561380484
sg7
I00
sg8
S'NaN'
p31
sg9
F0.5873018997550796
sg10
g5
sg12
F0.2988118500196308
sg13
g31
sg14
g5
sg15
g5
sg16
g5
sg17
g5
sg18
F0.25679257764224867
sg19
g5
sg20
F0.1424968474148802
sg21
F0.21701822618471178
sg22
g5
sg23
g5
sg24
F0.26547571991863256
sg25
F0.24003381404615312
sg26
F0.054405313961823645
sg27
g31
sg28
F0.19426373500990038
ssS'ELLIOTT STEVEN'
p32
(dp33
g3
g5
sg4
g5
sg6
F0.3429521247512193
sg7
I00
sg8
g31
sg9
F0.8604810354416524
sg10
S'steven.elliott@enron.com'
p34
sg12
g5
sg13
g31
sg14
g5
sg15
g5
sg16
g5
sg17
g5
sg18
F0.0012509016888186339
sg19
g5
sg20
F0.03530895334174023
sg21
F0.1367702447875685
sg22
g5
sg23
g5
sg24
F0.11921400664827513
sg25
F0.15346319391491212
sg26
F0.002043044855937851
sg27
g31
sg28
F0.14212995580685178
ssS'CORDES WILLIAM R'
p35
(dp36
g3
F0.046846011131725415
sg4
g5
sg6
g5
sg7
I00
sg8
F0.0
sg9
g5
sg10
S'bill.cordes@enron.com'
p37
sg12
g5
sg13
F0.013089005235602094
sg14
g5
sg15
F0.010146765718427252
sg16
g5
sg17
F0.0
sg18
g5
sg19
g5
sg20
g5
sg21
F0.022018029761909728
sg22
F0.01893939393939394
sg23
F0.0
sg24
F0.024025349858655242
sg25
g5
sg26
g5
sg27
F0.0
sg28
F0.01869754023906812
ssS'HANNON KEVIN P'
p38
(dp39
g3
F0.06546514709780016
sg4
g5
sg6
F0.14824486582245258
sg7
I01
sg8
F0.65625
sg9
F0.10739873674965053
sg10
S'kevin.hannon@enron.com'
p40
sg12
F0.304910099284683
sg13
F0.03062200956937799
sg14
g5
sg15
F0.1871715890559884
sg16
g5
sg17
F0.0013931457230426303
sg18
F0.0010953956605227145
sg19
g5
sg20
F0.18032786885245902
sg21
F0.13091784215016056
sg22
F0.06060606060606061
sg23
F0.034482758620689655
sg24
F0.055712605285515866
sg25
F0.21859934586565669
sg26
F0.0027861625056748696
sg27
F0.65625
sg28
F0.16099086913346827
ssS'MORDAUNT KRISTINA M'
p41
(dp42
g3
g5
sg4
g5
sg6
F0.15252717450735953
sg7
I00
sg8
g31
sg9
g5
sg10
S'kristina.mordaunt@enron.com'
p43
sg12
g5
sg13
g31
sg14
g5
sg15
g5
sg16
g5
sg17
g5
sg18
F0.00013600744498383017
sg19
g5
sg20
F0.03215636822194199
sg21
F0.005138994206615752
sg22
g5
sg23
g5
sg24
F0.011952420607887688
sg25
F0.2400257116389279
sg26
F0.006067749652869127
sg27
g31
sg28
g5
ssS'MEYER ROCKFORD G'
p44
(dp45
g3
F0.011595547309833023
sg4
F0.286689155010828
sg6
g5
sg7
I00
sg8
F0.0
sg9
g5
sg10
S'rockford.meyer@enron.com'
p46
sg12
g5
sg13
F0.0
sg14
g5
sg15
F0.003623844899438304
sg16
g5
sg17
F0.0011145165784341043
sg18
g5
sg19
g5
sg20
g5
sg21
F0.020343461798999724
sg22
F0.0
sg23
F0.0
sg24
F0.029188483257174134
sg25
g5
sg26
F0.01784555171080395
sg27
F0.0
sg28
F0.014085788809968589
ssS'MCMAHON JEFFREY'
p47
(dp48
g3
F0.1522661012456931
sg4
g5
sg6
F0.5990857992695142
sg7
I00
sg8
F0.5416666666666666
sg9
g5
sg10
S'jeffrey.mcmahon@enron.com'
p49
sg12
F0.12324921087795603
sg13
F0.024628450106157114
sg14
g5
sg15
F0.40333393730748324
sg16
g5
sg17
F0.0025076623014767345
sg18
F0.028702590328876426
sg19
g5
sg20
F0.31904161412358134
sg21
F0.03472641212889136
sg22
F0.10984848484848485
sg23
F0.042692939244663386
sg24
F0.03573444484621536
sg25
F0.3330728559455014
sg26
F0.03958707081315314
sg27
F0.5416666666666666
sg28
F0.03186651772244171
ssS'HORTON STANLEY C'
p50
(dp51
g3
F0.15193479989398356
sg4
F0.48666223505143846
sg6
g5
sg7
I00
sg8
F0.013979496738117428
sg9
g5
sg10
S'stanley.horton@enron.com'
p52
sg12
g5
sg13
F0.01872340425531915
sg14
g5
sg15
F0.19423808660989308
sg16
g5
sg17
F0.07390638060741153
sg18
g5
sg19
g5
sg20
g5
sg21
F0.1485273955693404
sg22
F0.08333333333333333
sg23
F0.024630541871921183
sg24
F0.13670901012231865
sg25
g5
sg26
F0.03024065986321216
sg27
F0.013979496738117428
sg28
F0.1514554721990405
ssS'PIPER GREGORY F'
p53
(dp54
g3
F0.07825337927378744
sg4
F0.17480447587945155
sg6
F0.18769109638475165
sg7
I00
sg8
F0.21621621621621623
sg9
F0.9623406450883116
sg10
S'greg.piper@enron.com'
p55
sg12
g5
sg13
F0.049273021001615507
sg14
F0.31372194532169667
sg15
F0.13408226127921724
sg16
g5
sg17
F0.014628030091947618
sg18
F7.49054487632734e-05
sg19
g5
sg20
F0.0416141235813367
sg21
F0.01880578964499269
sg22
F0.11553030303030302
sg23
F0.07881773399014778
sg24
F0.02560173869191025
sg25
F0.17700518824142653
sg26
F0.01677758744731116
sg27
F0.21621621621621623
sg28
F0.02535011566144798
ssS'HUMPHREY GENE E'
p56
(dp57
g3
F0.004704479194275113
sg4
F0.4605906905857568
sg6
F0.02119720928198062
sg7
I00
sg8
F1.0
sg9
g5
sg10
S'gene.humphrey@enron.com'
p58
sg12
g5
sg13
F0.078125
sg14
g5
sg15
F0.02119949266171408
sg16
g5
sg17
F0.00034828643076065756
sg18
g5
sg19
g5
sg20
g5
sg21
F0.04733801735767246
sg22
F0.01893939393939394
sg23
F0.027914614121510674
sg24
g5
sg25
F0.11725713709543105
sg26
F0.029935174072873657
sg27
F1.0
sg28
F0.06619274686976727
ssS'UMANOFF ADAM S'
p59
(dp60
g3
F0.0035780545984627618
sg4
g5
sg6
F0.2317170789318286
sg7
I00
sg8
F0.0
sg9
g5
sg10
S'adam.umanoff@enron.com'
p61
sg12
g5
sg13
F0.10810810810810811
sg14
g5
sg15
F0.007066497553904693
sg16
g5
sg17
F0.00041794371691278906
sg18
g5
sg19
g5
sg20
F0.09063682219419925
sg21
g5
sg22
F0.022727272727272728
sg23
F0.0
sg24
g5
sg25
F0.2593778611625514
sg26
F0.010914608677926619
sg27
F0.0
sg28
g5
ssS'BLACHMAN JEREMY M'
p62
(dp63
g3
F0.16021733368672145
sg4
g5
sg6
F0.367692408634604
sg7
I00
sg8
F0.14285714285714285
sg9
g5
sg10
S'jeremy.blachman@enron.com'
p64
sg12
F0.15022740386481176
sg13
F0.010101010101010102
sg14
g5
sg15
F0.42109077731473094
sg16
g5
sg17
F0.00013931457230426304
sg18
F2.6062462842891518e-05
sg19
g5
sg20
F0.09836065573770492
sg21
F0.02031255902983289
sg22
F0.04734848484848485
sg23
F0.003284072249589491
sg24
F0.010630627499026766
sg25
F0.22332845088275727
sg26
F0.019454363714746223
sg27
F0.14285714285714285
sg28
F0.022001782776055887
ssS'SUNDE MARTIN'
p65
(dp66
g3
F0.17161410018552875
sg4
g5
sg6
g5
sg7
I00
sg8
F0.34210526315789475
sg9
g5
sg10
S'marty.sunde@enron.com'
p67
sg12
F0.08022282761689772
sg13
F0.013978088401964487
sg14
g5
sg15
F0.46439572386301864
sg16
g5
sg17
F0.0018110894399554194
sg18
F0.010726151374452242
sg19
g5
sg20
F0.07944514501891552
sg21
F0.01511597052465802
sg22
F0.07007575757575757
sg23
F0.021346469622331693
sg24
F0.04524743106124867
sg25
F0.23137684205977596
sg26
F0.014918079334860602
sg27
F0.34210526315789475
sg28
g5
ssS'GIBBS DANA R'
p68
(dp69
g3
F0.0074211502782931356
sg4
F0.07737135943769688
sg6
g5
sg7
I00
sg8
F0.0
sg9
g5
sg10
S'dana.gibbs@enron.com'
p70
sg12
F0.0773586834747413
sg13
F0.0
sg14
g5
sg15
F0.0038050371444102193
sg16
g5
sg17
F0.0
sg18
g5
sg19
g5
sg20
g5
sg21
F0.046025961865982845
sg22
F0.0
sg23
F0.0
sg24
g5
sg25
g5
sg26
F0.009331569261366239
sg27
F0.0
sg28
F0.06431459704173564
ssS'LOWRY CHARLES P'
p71
(dp72
g3
g5
sg4
g5
sg6
g5
sg7
I00
sg8
g31
sg9
g5
sg10
g5
sg12
g5
sg13
g31
sg14
F0.3719814111073415
sg15
g5
sg16
g5
sg17
g5
sg18
g5
sg19
g5
sg20
g5
sg21
F0.008469230413834057
sg22
g5
sg23
g5
sg24
F0.008230299009439323
sg25
g5
sg26
g5
sg27
g31
sg28
F0.010553784968575144
ssS'COLWELL WESLEY'
p73
(dp74
g3
F0.11270871985157699
sg4
F0.0030610548729410633
sg6
F0.07158760361306125
sg7
I01
sg8
F0.275
sg9
F0.9316413105376771
sg10
S'wes.colwell@enron.com'
p75
sg12
g5
sg13
F0.13651877133105803
sg14
g5
sg15
F0.20474723681826418
sg16
g5
sg17
F0.0019504040122596824
sg18
F0.00982052905448184
sg19
g5
sg20
F0.1424968474148802
sg21
F0.015102177188584871
sg22
F0.45454545454545453
sg23
F0.0180623973727422
sg24
F0.04520140015427822
sg25
F0.25933554859148655
sg26
F0.014389736465396343
sg27
F0.275
sg28
g5
ssS'MULLER MARK S'
p76
(dp77
g3
F0.005234561357010337
sg4
F0.1300762155771535
sg6
g5
sg7
I00
sg8
F0.0
sg9
F0.7722412075125191
sg10
S's..muller@enron.com'
p78
sg12
F0.32629100720990517
sg13
F0.08823529411764706
sg14
g5
sg15
F0.020293531436854504
sg16
g5
sg17
F0.00027862914460852607
sg18
F9.121861995012031e-05
sg19
g5
sg20
F0.12988650693568726
sg21
F0.029721607958763052
sg22
F0.022727272727272728
sg23
F0.0
sg24
F0.02227325602947173
sg25
F0.22612648217785505
sg26
F0.03091862665230264
sg27
F0.0
sg28
F0.03047641951191868
ssS'JACKSON CHARLENE R'
p79
(dp80
g3
F0.013318314338722503
sg4
g5
sg6
F0.04388600922949063
sg7
I00
sg8
F0.3392857142857143
sg9
g5
sg10
S'charlene.jackson@enron.com'
p81
sg12
g5
sg13
F0.09689922480620156
sg14
g5
sg15
F0.020837108171770247
sg16
g5
sg17
F0.0030649205906937865
sg18
F0.00023485174850650022
sg19
g5
sg20
F0.02269861286254729
sg21
F0.015661499000766386
sg22
F0.04734848484848485
sg23
F0.031198686371100164
sg24
F0.03450362727620459
sg25
F0.259349952870998
sg26
F0.005320856401158965
sg27
F0.3392857142857143
sg28
F0.005103880093356217
ssS'WESTFAHL RICHARD K'
p82
(dp83
g3
g5
sg4
g5
sg6
F0.22624062288126326
sg7
I00
sg8
g31
sg9
F0.9685878622168819
sg10
S'dick.westfahl@enron.com'
p84
sg12
F0.03683219629759283
sg13
g31
sg14
g5
sg15
g5
sg16
g5
sg17
g5
sg18
F0.03871993924164218
sg19
g5
sg20
g5
sg21
F0.008728109767124341
sg22
g5
sg23
g5
sg24
F0.023929961327248925
sg25
F0.05695722199065342
sg26
F0.007357952994141685
sg27
g31
sg28
g5
ssS'WALTERS GARETH W'
p85
(dp86
g3
g5
sg4
F0.007113848527557673
sg6
F0.14713382761411106
sg7
I00
sg8
g31
sg9
g5
sg10
g5
sg12
g5
sg13
g31
sg14
g5
sg15
g5
sg16
g5
sg17
g5
sg18
g5
sg19
g5
sg20
g5
sg21
F0.021858206092012007
sg22
g5
sg23
g5
sg24
g5
sg25
g5
sg26
F0.0008426255227120564
sg27
g31
sg28
F0.029719515783136176
ssS'WALLS JR ROBERT H'
p87
(dp88
g3
F0.04068380598992844
sg4
g5
sg6
F0.2221551516742121
sg7
I00
sg8
F0.0
sg9
g5
sg10
S'rob.walls@enron.com'
p89
sg12
F0.09288975576468354
sg13
F0.02533532041728763
sg14
g5
sg15
F0.038593948179017935
sg16
g5
sg17
F0.009334076344385623
sg18
F0.0
sg19
g5
sg20
F0.09836065573770492
sg21
F0.12090713522561493
sg22
F0.032196969696969696
sg23
F0.0
sg24
F0.1031956583757173
sg25
F0.32104798335585505
sg26
F0.0173680780771313
sg27
F0.0
sg28
F0.12629354136677926
ssS'KITCHEN LOUISE'
p90
(dp91
g3
F0.5465147097800159
sg4
g5
sg6
F0.024609058898147542
sg7
I00
sg8
F0.11226851851851852
sg9
g5
sg10
S'louise.kitchen@enron.com'
p92
sg12
g5
sg13
F0.030222757375075255
sg14
g5
sg15
F0.6644319623120131
sg16
g5
sg17
F0.11953190303705767
sg18
F0.00906616554664037
sg19
g5
sg20
F0.38209331651954603
sg21
F0.012028195938855322
sg22
F0.4753787878787879
sg23
F0.3185550082101806
sg24
F0.02944083853919355
sg25
F0.24394097486363198
sg26
F0.03351684915490006
sg27
F0.11226851851851852
sg28
F0.002074605237764484
ssS'CHAN RONNIE'
p93
(dp94
g3
g5
sg4
g5
sg6
g5
sg7
I00
sg8
g31
sg9
F0.9441945212573949
sg10
g5
sg12
g5
sg13
g31
sg14
F0.39958377638682385
sg15
g5
sg16
g5
sg17
g5
sg18
g5
sg19
F0.7843924796096888
sg20
g5
sg21
g5
sg22
g5
sg23
g5
sg24
F0.0
sg25
g5
sg26
g5
sg27
g31
sg28
g5
ssS'BELFER ROBERT'
p95
(dp96
g3
g5
sg4
g31
sg6
F0.013721759289635413
sg7
I00
sg8
g31
sg9
F1.0
sg10
g5
sg12
g5
sg13
g31
sg14
F0.4170143925025103
sg15
g5
sg16
g5
sg17
g5
sg18
g5
sg19
F0.0
sg20
g5
sg21
F0.0
sg22
g5
sg23
g5
sg24
g5
sg25
g5
sg26
F3.0291722224424388e-05
sS'directors_fees'
p97
I102500
sg27
g31
sg28
g31
sS'restricted_stock_options'
p98
I44093
ssS'SHANKMAN JEFFREY A'
p99
(dp100
g3
F0.20964749536178107
sg4
g5
sg6
F0.7822365111650592
sg7
I00
sg8
F0.030958597538232
sg9
g5
sg10
S'jeffrey.shankman@enron.com'
p101
sg12
F0.09558290622671123
sg13
F0.029183483390251473
sg14
g5
sg15
F0.3131001993114695
sg16
g5
sg17
F0.185915296740039
sg18
F0.00011477136414888153
sg19
g5
sg20
F0.24337957124842372
sg21
F0.043050832858110864
sg22
F0.17803030303030304
sg23
F0.13628899835796388
sg24
F0.04057760233831576
sg25
F0.27335091255612043
sg26
F0.029341100966500996
sg27
F0.030958597538232
sg28
F0.04170513044787727
ssS'WODRASKA JOHN'
p102
(dp103
g3
g5
sg4
g5
sg6
g5
sg7
I00
sg8
g31
sg9
g5
sg10
S'john.wodraska@enron.com'
p104
sg12
g5
sg13
g31
sg14
g5
sg15
g5
sg16
g5
sg17
g5
sg18
F0.018299806548956358
sg19
g5
sg20
g5
sg21
g5
sg22
g5
sg23
g5
sg24
g5
sg25
g5
sg26
F0.001829235702768197
sg27
g31
sg28
g5
ssS'BERGSIEKER RICHARD P'
p105
(dp106
g3
F0.021600848131460376
sg4
g5
sg6
F0.2581939067865188
sg7
I00
sg8
F0.0
sg9
F0.8368917121306302
sg10
S'rick.bergsieker@enron.com'
p107
sg12
F0.021872022262273968
sg13
F0.010443864229765013
sg14
g5
sg15
F0.04185540858851241
sg16
g5
sg17
F0.003273892449150181
sg18
F0.04124761202684202
sg19
g5
sg20
F0.02269861286254729
sg21
F0.014308897611150843
sg22
F0.007575757575757576
sg23
F0.0
sg24
F0.042554079865931925
sg25
F0.16875063581390032
sg26
F0.005974354199456747
sg27
F0.0
sg28
g5
ssS'URQUHART JOHN A'
p108
(dp109
g3
g5
sg4
g5
sg6
F0.9995319642193207
sg7
I00
sg8
g31
sg9
F0.9614165792875072
sg10
g5
sg12
g5
sg13
g31
sg14
g5
sg15
g5
sg16
g5
sg17
g5
sg18
g5
sg19
F0.2741788433580563
sg20
g5
sg21
g5
sg22
g5
sg23
g5
sg24
g5
sg25
g5
sg26
F0.0022065351807646696
sg27
g31
sg28
g5
ssS'BIBI PHILIPPE A'
p110
(dp111
g3
F0.10270341902994964
sg4
g5
sg6
F0.16801609693152242
sg7
I00
sg8
F0.2
sg9
g5
sg10
S'philippe.bibi@enron.com'
p112
sg12
F0.05919730287019196
sg13
F0.01431238332296204
sg14
g5
sg15
F0.2417104547925349
sg16
g5
sg17
F0.0019504040122596824
sg18
F0.0410904650286634
sg19
g5
sg20
F0.11727616645649433
sg21
F0.038407910490444445
sg22
F0.043560606060606064
sg23
F0.013136288998357963
sg24
F0.023465035588408737
sg25
F0.19189021058156377
sg26
F0.019770683841181573
sg27
F0.2
sg28
F0.04239927677850171
ssS'RIEKER PAULA H'
p113
(dp114
g3
F0.0842168036045587
sg4
F0.03220378035369524
sg6
F0.14488550620038054
sg7
I01
sg8
F0.5853658536585366
sg9
F0.9438573883399697
sg10
S'paula.rieker@enron.com'
p115
sg12
g5
sg13
F0.02635542168674699
sg14
g5
sg15
F0.22757745968472548
sg16
g5
sg17
F0.004876010030649206
sg18
F0.00018803584302945435
sg19
g5
sg20
F0.07944514501891552
sg21
F0.03993516643785936
sg22
F0.06628787878787878
sg23
F0.07881773399014778
sg24
F0.017053772110620282
sg25
F0.22391812607525696
sg26
F0.010611778362121654
sg27
F0.5853658536585366
sg28
F0.04733553200698654
ssS'WHALEY DAVID A'
p116
(dp117
g3
g5
sg4
g5
sg6
g5
sg7
I00
sg8
g31
sg9
g5
sg10
g5
sg12
g5
sg13
g31
sg14
g5
sg15
g5
sg16
g5
sg17
g5
sg18
g5
sg19
g5
sg20
g5
sg21
F0.002905368905519737
sg22
g5
sg23
g5
sg24
g5
sg25
g5
sg26
g5
sg27
g31
sg28
F0.002589361511473057
ssS'BECK SALLY W'
p118
(dp119
g3
F0.4809170421415319
sg4
g5
sg6
F0.1619491284473897
sg7
I00
sg8
F0.08887865530739121
sg9
g5
sg10
S'sally.beck@enron.com'
p120
sg12
g5
sg13
F0.01968557758031442
sg14
g5
sg15
F0.4778039499909404
sg16
g5
sg17
F0.30168570632488156
sg18
F5.444158904959561e-05
sg19
g5
sg20
F0.07944514501891552
sg21
F0.00346094739345721
sg22
F0.2727272727272727
sg23
F0.6338259441707718
sg24
F0.006352468838501717
sg25
F0.20782944612844476
sg26
F0.00935615412741131
sg27
F0.08887865530739121
sg28
g5
ssS'HAUG DAVID L'
p121
(dp122
g3
F0.034190299496421946
sg4
g5
sg6
F0.0014303523390853618
sg7
I00
sg8
F0.3684210526315789
sg9
g5
sg10
S'david.haug@enron.com'
p123
sg12
g5
sg13
F0.006980802792321117
sg14
g5
sg15
F0.08497916289182823
sg16
g5
sg17
F0.0004876010030649206
sg18
g5
sg19
g5
sg20
g5
sg21
F0.04600610597216664
sg22
F0.007575757575757576
sg23
F0.011494252873563218
sg24
F0.14833351143718676
sg25
g5
sg26
F3.157600627155491e-06
sg27
F0.3684210526315789
sg28
g5
ssS'ECHOLS JOHN B'
p124
(dp125
g3
g5
sg4
g5
sg6
F0.09352842114471929
sg7
I00
sg8
g31
sg9
g5
sg10
S'john.echols@enron.com'
p126
sg12
F0.42660775921253075
sg13
g31
sg14
g5
sg15
g5
sg16
g5
sg17
g5
sg18
F0.005190580794262243
sg19
g5
sg20
F0.01639344262295082
sg21
F0.02142308533694933
sg22
g5
sg23
g5
sg24
F0.02546249180371498
sg25
F0.1636398173897465
sg26
F0.02599638111930569
sg27
g31
sg28
F0.01722945394860667
ssS'MENDELSOHN JOHN'
p127
(dp128
g3
g5
sg4
g5
sg6
F0.0
sg7
I00
sg8
g31
sg9
F0.9428177103462655
sg10
g5
sg12
g5
sg13
g31
sg14
g5
sg15
g5
sg16
g5
sg17
g5
sg18
g5
sg19
F0.8251813156576234
sg20
g5
sg21
g5
sg22
g5
sg23
g5
sg24
g5
sg25
g5
sg26
F0.0
sg27
g31
sg28
g5
ssS'HICKERSON GARY J'
p129
(dp130
g3
F0.08368672144182349
sg4
g5
sg6
F0.4317345755965269
sg7
I00
sg8
F0.037037037037037035
sg9
g5
sg10
S'gary.hickerson@enron.com'
p131
sg12
F0.0
sg13
F0.030303030303030304
sg14
g5
sg15
F0.16271063598477986
sg16
g5
sg17
F0.0010448592922819727
sg18
F0.00018668445606723034
sg19
g5
sg20
F0.2055485498108449
sg21
F0.009870759492617625
sg22
F0.07575757575757576
sg23
F0.0016420361247947454
sg24
F0.027743194248933786
sg25
F0.19023641924015625
sg26
F0.0201009572792568
sg27
F0.037037037037037035
sg28
g5
ssS'CLINE KENNETH W'
p132
(dp133
g3
g5
sg4
g5
sg6
g5
sg7
I00
sg8
g31
sg9
g5
sg10
g5
sg12
g5
sg13
g31
sg14
F0.29937407072613714
sg15
g5
sg16
g5
sg17
g5
sg18
g5
sg19
g5
sg20
g5
sg21
F0.004752618043339598
sg22
g5
sg23
g5
sg24
F0.0427466900179602
sg25
g5
sg26
g5
sg27
g31
sg28
g5
ssS'LEWIS RICHARD'
p134
(dp135
g3
F0.05930294195600318
sg4
g5
sg6
g5
sg7
I00
sg8
F0.0
sg9
g5
sg10
S'richard.lewis@enron.com'
p136
sg12
g5
sg13
F0.01050420168067227
sg14
g5
sg15
F0.1335386845443015
sg16
g5
sg17
F0.0009752020061298412
sg18
g5
sg19
g5
sg20
g5
sg21
F0.01819926939669067
sg22
F0.01893939393939394
sg23
F0.0
sg24
g5
sg25
g5
sg26
g5
sg27
F0.0
sg28
F0.02448190855644268
ssS'HAYES ROBERT E'
p137
(dp138
g3
F0.02961834084283064
sg4
F0.0
sg6
g5
sg7
I00
sg8
F0.0
sg9
g5
sg10
S'robert.hayes@enron.com'
p139
sg12
g5
sg13
F0.031746031746031744
sg14
g5
sg15
F0.00869722775865193
sg16
g5
sg17
F0.0
sg18
g5
sg19
g5
sg20
g5
sg21
F0.003977505794981264
sg22
F0.030303030303030304
sg23
F0.0
sg24
F0.00807631951532578
sg25
g5
sg26
F7.544444556564481e-05
sg27
F0.0
sg28
g5
ssS'MCCARTY DANNY J'
p140
(dp141
g3
F0.09117413199045853
sg4
g5
sg6
g5
sg7
I00
sg8
F0.009302325581395349
sg9
g5
sg10
S'danny.mccarty@enron.com'
p142
sg12
g5
sg13
F0.017445917655268667
sg14
g5
sg15
F0.0916832759557891
sg16
g5
sg17
F0.014140429088882698
sg18
g5
sg19
g5
sg20
g5
sg21
F0.016336843520359644
sg22
F0.04734848484848485
sg23
F0.003284072249589491
sg24
F0.004215833627193376
sg25
g5
sg26
g5
sg27
F0.009302325581395349
sg28
F0.019062290314209546
ssS'KOPPER MICHAEL J'
p143
(dp144
g3
g5
sg4
g5
sg6
F0.5160903702731667
sg7
I01
sg8
g31
sg9
g5
sg10
S'michael.kopper@enron.com'
p145
sg12
F0.10508783027340668
sg13
g31
sg14
g5
sg15
g5
sg16
g5
sg17
g5
sg18
F0.08759883344416315
sg19
g5
sg20
F0.09205548549810845
sg21
F0.0209366769709126
sg22
g5
sg23
g5
sg24
F0.0646722022340062
sg25
F0.20150506715545188
sg26
F0.02561291128412037
sg27
g31
sg28
g5
ssS'LEFF DANIEL P'
p146
(dp147
g3
F0.18320964749536178
sg4
g5
sg6
g5
sg7
I00
sg8
F0.2222222222222222
sg9
g5
sg10
S'dan.leff@enron.com'
p148
sg12
F0.25967714896012006
sg13
F0.02374202693125443
sg14
g5
sg15
F0.4837832940750136
sg16
g5
sg17
F0.003552521593758707
sg18
F0.0002974016593294399
sg19
g5
sg20
F0.11727616645649433
sg21
F0.008231671733412002
sg22
F0.1268939393939394
sg23
F0.022988505747126436
sg24
F0.02227325602947173
sg25
F0.24601519111327977
sg26
F0.025725078528417124
sg27
F0.2222222222222222
sg28
g5
ssS'LAVORATO JOHN J'
p149
(dp150
g3
F0.4772064670023854
sg4
g5
sg6
F0.2160356931959845
sg7
I00
sg8
F0.15899419729206962
sg9
g5
sg10
S'john.lavorato@enron.com'
p151
sg12
F0.38732767412544516
sg13
F0.07273729163796666
sg14
g5
sg15
F0.7175212900887842
sg16
g5
sg17
F0.17922819726943437
sg18
F0.0001496178422462291
sg19
g5
sg20
F1.0
sg21
F0.10601820545401935
sg22
F1.0
sg23
F0.6748768472906403
sg24
F0.06624166606355768
sg25
F0.30502052159696647
sg26
F0.10067250616782242
sg27
F0.15899419729206962
sg28
F0.12083178393422839
ssS'BERBERIAN DAVID'
p152
(dp153
g3
g5
sg4
g5
sg6
F0.051370207554184984
sg7
I00
sg8
g31
sg9
g5
sg10
S'david.berberian@enron.com'
p154
sg12
g5
sg13
g31
sg14
g5
sg15
g5
sg16
g5
sg17
g5
sg18
g5
sg19
g5
sg20
g5
sg21
F0.05162754143488657
sg22
g5
sg23
g5
sg24
F0.05680947155839876
sg25
F0.1945523014887723
sg26
F0.002204777739437017
sg27
g31
sg28
F0.04701979385810963
ssS'DETMERING TIMOTHY J'
p155
(dp156
g3
g5
sg4
F0.1351210595870497
sg6
F0.22792467685847384
sg7
I00
sg8
g31
sg9
F0.75664853283414
sg10
S'timothy.detmering@enron.com'
p157
sg12
F0.06824657209875634
sg13
g31
sg14
F0.335235787944543
sg15
g5
sg16
g5
sg17
g5
sg18
F0.00010646998709521978
sg19
g5
sg20
F0.04476670870113493
sg21
F0.0421522315980062
sg22
g5
sg23
g5
sg24
F0.019186876927883692
sg25
F0.1890768747394851
sg26
F0.011630350799290593
sg27
g31
sg28
F0.05876952224671136
ssS'WAKEHAM JOHN'
p158
(dp159
g3
g5
sg4
g5
sg6
F0.4532729698401242
sg7
I00
sg8
g31
sg9
g5
sg10
g5
sg12
g5
sg13
g31
sg14
g5
sg15
g5
sg16
g5
sg17
g5
sg18
g5
sg19
F0.8707504784433547
sg20
g5
sg21
g5
sg22
g5
sg23
g5
sg24
g5
sg25
g5
sg26
F0.0020560421967456533
sg27
g31
sg28
g5
ssS'POWERS WILLIAM'
p160
(dp161
g3
F0.03949112112377418
sg4
g5
sg6
g5
sg7
I00
sg8
F0.0
sg9
F0.9667303042014636
sg10
S'ken.powers@enron.com'
p162
sg12
g5
sg13
F0.0
sg14
g5
sg15
F0.001811922449719152
sg16
g5
sg17
F0.0009752020061298412
sg18
g5
sg19
F0.11675660580374377
sg20
g5
sg21
g5
sg22
F0.0
sg23
F0.0
sg24
g5
sg25
g5
sg26
g5
sg27
F0.0
sg28
g5
ssS'GOLD JOSEPH'
p163
(dp164
g3
g5
sg4
g5
sg6
g5
sg7
I00
sg8
g31
sg9
g5
sg10
S'joe.gold@enron.com'
p165
sg12
F0.046409024368766386
sg13
g31
sg14
g5
sg15
g5
sg16
g5
sg17
g5
sg18
F0.0790837441951897
sg19
g5
sg20
F0.08575031525851198
sg21
F0.018751287657765604
sg22
g5
sg23
g5
sg24
F0.027743194248933786
sg25
F0.24523555948472292
sg26
F0.020730324056247973
sg27
g31
sg28
F0.012426605514071766
ssS'BANNANTINE JAMES M'
p166
(dp167
g3
F0.033726477604028623
sg4
g5
sg6
F0.2456225532007961
sg7
I00
sg8
F0.0
sg9
F0.9701670637774523
sg10
S'james.bannantine@enron.com'
p168
sg12
g5
sg13
F0.06890459363957598
sg14
F0.27941582970352036
sg15
F0.08389200942199673
sg16
g5
sg17
F0.0011841738645862357
sg18
F0.08345017199777562
sg19
g5
sg20
g5
sg21
F0.10757133916468656
sg22
F0.07386363636363637
sg23
F0.0
sg24
F0.11712027930305133
sg25
F0.0
sg26
F0.008845617421728319
sg27
F0.0
sg28
F0.11754574249879458
ssS'DUNCAN JOHN H'
p169
(dp170
g3
g5
sg4
g5
sg6
g5
sg7
I00
sg8
g31
sg9
F0.9646509482140551
sg10
g5
sg12
g5
sg13
g31
sg14
g5
sg15
g5
sg16
g5
sg17
g5
sg18
g5
sg19
F0.8148485819185374
sg20
g5
sg21
F0.008459973823991458
sg22
g5
sg23
g5
sg24
g5
sg25
g5
sg26
F0.0007468546266260375
sg27
g31
sg28
F0.010540534566643858
ssS'SHAPIRO RICHARD S'
p171
(dp172
g3
F1.0
sg4
g5
sg6
F0.6019683747785578
sg7
I00
sg8
F0.053497942386831275
sg9
g5
sg10
S'richard.shapiro@enron.com'
p173
sg12
g5
sg13
F0.0048848108786058485
sg14
g5
sg15
F0.8198949084979162
sg16
g5
sg17
F0.0837977152410142
sg18
F6.78589310316768e-05
sg19
g5
sg20
F0.07313997477931904
sg21
F0.020976734609154533
sg22
F0.14015151515151514
sg23
F0.10673234811165845
sg24
F0.02353849494142058
sg25
F0.24181094203087738
sg26
F0.010210540988239192
sg27
F0.053497942386831275
sg28
F0.01741580410675677
ssS'SHERRIFF JOHN R'
p174
(dp175
g3
F0.20739464617015638
sg4
g5
sg6
g5
sg7
I00
sg8
F0.25
sg9
g5
sg10
S'john.sherriff@enron.com'
p176
sg12
F0.09558290622671123
sg13
F0.008785691873235017
sg14
g5
sg15
F0.38068490668599386
sg16
g5
sg17
F0.005572582892170521
sg18
F0.17878695065999325
sg19
g5
sg20
F0.18032786885245902
sg21
F0.06455352486770655
sg22
F0.05303030303030303
sg23
F0.03776683087027915
sg24
F0.08560961147063045
sg25
F0.3855872579743442
sg26
F0.04186225242467759
sg27
F0.25
sg28
F0.05316920346825048
ssS'SHELBY REX'
p177
(dp178
g3
F0.011131725417439703
sg4
g5
sg6
F0.0994510421450911
sg7
I01
sg8
F0.358974358974359
sg9
F0.9704268446521459
sg10
S'rex.shelby@enron.com'
p179
sg12
g5
sg13
F0.057777777777777775
sg14
g5
sg15
F0.016126109802500455
sg16
g5
sg17
F0.0018807467261075508
sg18
F0.15186905987001395
sg19
g5
sg20
F0.01639344262295082
sg21
F0.05162754143488657
sg22
F0.02462121212121212
sg23
F0.022988505747126436
sg24
F0.05680947155839876
sg25
F0.1902868342184463
sg26
F0.019348627546956154
sg27
F0.358974358974359
sg28
F0.04701979385810963
ssS'LEMAISTRE CHARLES'
p180
(dp181
g3
g5
sg4
g5
sg6
g5
sg7
I00
sg8
g31
sg9
F0.9646509482140551
sg10
g5
sg12
g5
sg13
g31
sg14
g5
sg15
g5
sg16
g5
sg17
g5
sg18
g5
sg19
F0.8969847801624654
sg20
g5
sg21
F0.009296688169148453
sg22
g5
sg23
g5
sg24
g5
sg25
g5
sg26
F0.000843417336936603
sg27
g31
sg28
F0.011738254414182112
ssS'DEFFNER JOSEPH M'
p182
(dp183
g3
F0.04353299761463027
sg4
g5
sg6
F0.18143166458893772
sg7
I00
sg8
F0.05405405405405406
sg9
g5
sg10
S'joseph.deffner@enron.com'
p184
sg12
F0.05242611073495566
sg13
F0.16106442577030813
sg14
g5
sg15
F0.09965573473455336
sg16
g5
sg17
F0.0043187517414321535
sg18
F0.002466377733698967
sg19
g5
sg20
F0.06683480453972257
sg21
F0.004136047783208469
sg22
F0.2178030303030303
sg23
F0.006568144499178982
sg24
F0.0074255728437744965
sg25
F0.18513460349069708
sg26
F0.011669613197302869
sg27
F0.05405405405405406
sg28
F0.0002205973508340371
ssS'KISHKILL JOSEPH G'
p185
(dp186
g3
g5
sg4
g5
sg6
F0.5082212453251099
sg7
I00
sg8
g31
sg9
F0.9574308697308426
sg10
S'joe.kishkill@enron.com'
p187
sg12
g5
sg13
g31
sg14
g5
sg15
g5
sg16
g5
sg17
g5
sg18
F0.04491961998612512
sg19
g5
sg20
g5
sg21
F0.021939928556622388
sg22
g5
sg23
g5
sg24
F0.06802023784807819
sg25
F0.15643857790149454
sg26
F0.00680523769659504
sg27
g31
sg28
g5
ssS'WHALLEY LAWRENCE G'
p188
(dp189
g3
F0.39504373177842567
sg4
g5
sg6
F0.25234564661111475
sg7
I00
sg8
F0.04316546762589928
sg9
g5
sg10
S'greg.whalley@enron.com'
p190
sg12
F0.14560525557349763
sg13
F0.03090214321315833
sg14
g5
sg15
F0.7099112157999637
sg16
g5
sg17
F0.03789356366675954
sg18
F0.02905713635117991
sg19
g5
sg20
F0.3694829760403531
sg21
F0.12457193103714434
sg22
F0.3522727272727273
sg23
F0.03940886699507389
sg24
F0.18763480843606667
sg25
F0.45903467920319124
sg26
F0.0451664931837107
sg27
F0.04316546762589928
sg28
F0.09532010073450618
ssS'MCCONNELL MICHAEL S'
p191
(dp192
g3
F0.2168036045587066
sg4
g5
sg6
F0.3552522800341185
sg7
I00
sg8
F0.07075127644055434
sg9
g5
sg10
S'mike.mcconnell@enron.com'
p193
sg12
F0.09558290622671123
sg13
F0.02763592670471613
sg14
g5
sg15
F0.39626743975357853
sg16
g5
sg17
F0.19016439119531903
sg18
F5.1931870405465315e-05
sg19
g5
sg20
F0.12988650693568726
sg21
F0.06398993078328999
sg22
F0.17424242424242425
sg23
F0.3185550082101806
sg24
F0.09815914391746373
sg25
F0.3282024089356948
sg26
F0.020289911190792514
sg27
F0.07075127644055434
sg28
F0.04697943109530356
ssS'PIRO JIM'
p194
(dp195
g3
F6.626027034190299e-05
sg4
g5
sg6
g5
sg7
I00
sg8
F0.0625
sg9
g5
sg10
S'jim.piro@enron.com'
p196
sg12
g5
sg13
F0.0
sg14
g5
sg15
F0.0001811922449719152
sg16
g5
sg17
F0.00027862914460852607
sg18
g5
sg19
g5
sg20
g5
sg21
F0.0018593945974594913
sg22
F0.0
sg23
F0.0016420361247947454
sg24
F0.0010077917154415498
sg25
g5
sg26
g5
sg27
F0.0625
sg28
g5
ssS'DELAINEY DAVID W'
p197
(dp198
g3
F0.20116618075801748
sg4
g5
sg6
F0.3762920193338145
sg7
I01
sg8
F0.198435972629521
sg9
g5
sg10
S'david.delainey@enron.com'
p199
sg12
F0.24147104996226515
sg13
F0.02133850630455868
sg14
g5
sg15
F0.37959775321616235
sg16
g5
sg17
F0.21294232376706604
sg18
F0.00016013935502354453
sg19
g5
sg20
F0.3694829760403531
sg21
F0.07442611533413919
sg22
F0.125
sg23
F1.0
sg24
F0.08762763902046773
sg25
F0.3283149423693779
sg26
F0.045846342945652235
sg27
F0.198435972629521
sg28
F0.06643576797771579
ssS'SULLIVAN-SHAKLOVITZ COLLEEN'
p200
(dp201
g3
g5
sg4
F0.027111888729588227
sg6
g5
sg7
I00
sg8
g31
sg9
g5
sg10
g5
sg12
F0.09558290622671123
sg13
g31
sg14
g5
sg15
g5
sg16
g5
sg17
g5
sg18
F1.5444422425417196e-05
sg19
g5
sg20
F0.0037831021437578815
sg21
F0.028613400885145638
sg22
g5
sg23
g5
sg24
g5
sg25
F0.14611521082913734
sg26
F0.00964862326439995
sg27
g31
sg28
F0.039389280529675934
ssS'WROBEL BRUCE'
p202
(dp203
g3
g5
sg4
g5
sg6
g5
sg7
I00
sg8
g31
sg9
g5
sg10
g5
sg12
g5
sg13
g31
sg14
g5
sg15
g5
sg16
g5
sg17
g5
sg18
g5
sg19
g5
sg20
g5
sg21
F0.0037275168367705766
sg22
g5
sg23
g5
sg24
g5
sg25
g5
sg26
g5
sg27
g31
sg28
F0.003766230177071091
ssS'LINDHOLM TOD A'
p204
(dp205
g3
g5
sg4
F0.030551972891850153
sg6
F0.25186011416573717
sg7
I00
sg8
g31
sg9
g5
sg10
S'tod.lindholm@enron.com'
p206
sg12
F0.020837786293753352
sg13
g31
sg14
g5
sg15
g5
sg16
g5
sg17
g5
sg18
F0.00025367463833747745
sg19
g5
sg20
F0.01639344262295082
sg21
F0.06323575266888339
sg22
g5
sg23
g5
sg24
F0.03275031138754398
sg25
F0.21244511744439273
sg26
F0.008456392449008492
sg27
g31
sg28
F0.07395640489628852
ssS'MEYER JEROME J'
p207
(dp208
g3
g5
sg4
g5
sg6
F0.008761454847669664
sg7
I00
sg8
g31
sg9
F0.9609508035463278
sg10
g5
sg12
g5
sg13
g31
sg14
g5
sg15
g5
sg16
g5
sg17
g5
sg18
g5
sg19
F0.2879777246630362
sg20
g5
sg21
g5
sg22
g5
sg23
g5
sg24
g5
sg25
g5
sg26
F1.9341510875206264e-05
sg27
g31
sg28
g5
ssS'LAY KENNETH L'
p209
(dp210
g3
F0.279353299761463
sg4
F0.030370637054295907
sg6
F0.4360343809461321
sg7
I01
sg8
F0.4444444444444444
sg9
F0.8884078953424089
sg10
S'kenneth.lay@enron.com'
p211
sg12
F0.6955536324238689
sg13
F0.028785396676807865
sg14
g5
sg15
F0.43649211813734373
sg16
F1.0
sg17
F0.0016717748676511562
sg18
F1.0
sg19
g5
sg20
F0.8738965952080706
sg21
F1.0
sg22
F0.23295454545454544
sg23
F0.026272577996715927
sg24
F1.0
sg25
F0.9649462855414344
sg26
F1.0
sg27
F0.4444444444444444
sg28
F1.0
ssS'BUTTS ROBERT H'
p212
(dp213
g3
g5
sg4
g5
sg6
F0.040513527108894866
sg7
I00
sg8
g31
sg9
F0.9507885749646648
sg10
S'bob.butts@enron.com'
p214
sg12
F0.020837786293753352
sg13
g31
sg14
g5
sg15
g5
sg16
g5
sg17
g5
sg18
F0.014542275100492512
sg19
g5
sg20
F0.08575031525851198
sg21
F0.00939313980089299
sg22
g5
sg23
g5
sg24
F0.026149289229840465
sg25
F0.23500491996172063
sg26
F0.01227731130210035
sg27
g31
sg28
g5
ssS'OLSON CINDY K'
p215
(dp216
g3
F0.07467532467532467
sg4
F0.010866908375082899
sg6
F0.27838505784834766
sg7
I00
sg8
F0.28846153846153844
sg9
g5
sg10
S'cindy.olson@enron.com'
p217
sg12
F0.006062986743458851
sg13
F0.016891891891891893
sg14
g5
sg15
F0.15473817720601557
sg16
g5
sg17
F0.0027862914460852605
sg18
F9.363181095409175e-05
sg19
g5
sg20
F0.08575031525851198
sg21
F0.053929421370975825
sg22
F0.03787878787878788
sg23
F0.024630541871921183
sg24
F0.0636332480018988
sg25
F0.295828790733727
sg26
F0.012759883446877401
sg27
F0.28846153846153844
sg28
F0.04738783469241201
ssS'MCDONALD REBECCA'
p218
(dp219
g3
F0.05545984627617281
sg4
g5
sg6
g5
sg7
I00
sg8
F0.07692307692307693
sg9
g5
sg10
S'rebecca.mcdonald@enron.com'
p220
sg12
g5
sg13
F0.06040268456375839
sg14
g5
sg15
F0.13009603188983512
sg16
g5
sg17
F6.965728615213152e-05
sg18
g5
sg19
g5
sg20
g5
sg21
F0.035306444289336096
sg22
F0.10227272727272728
sg23
F0.0016420361247947454
sg24
F0.061211940824621294
sg25
g5
sg26
g5
sg27
F0.07692307692307693
sg28
F0.021768459215015322
ssS'CUMBERLAND MICHAEL S'
p221
(dp222
g3
g5
sg4
g5
sg6
F0.09708899241082168
sg7
I00
sg8
g31
sg9
g5
sg10
g5
sg12
F0.04053751902747935
sg13
g31
sg14
g5
sg15
g5
sg16
g5
sg17
g5
sg18
F6.863115215294766e-05
sg19
g5
sg20
F0.03215636822194199
sg21
F0.005127398039120627
sg22
g5
sg23
g5
sg24
F0.011913722057779786
sg25
F0.16602912725370708
sg26
F0.007800412989055728
sg27
g31
sg28
g5
ssS'GAHN ROBERT S'
p223
(dp224
g3
g5
sg4
F0.010151223806591309
sg6
F0.21841086542877763
sg7
I00
sg8
g31
sg9
F0.9712932429802328
sg10
g5
sg12
g5
sg13
g31
sg14
g5
sg15
g5
sg16
g5
sg17
g5
sg18
F0.007388708215959745
sg19
g5
sg20
F0.055469104665825976
sg21
F0.007378824474529333
sg22
g5
sg23
g5
sg24
F0.01377600491648106
sg25
F0.17242912869413501
sg26
F0.008694863718391465
sg27
g31
sg28
F0.002138527506422004
ssS'MCCLELLAN GEORGE'
p225
(dp226
g3
F0.11178107606679036
sg4
g5
sg6
F1.0
sg7
I00
sg8
F0.0
sg9
F0.9369262017152746
sg10
S'george.mcclellan@enron.com'
p227
sg12
g5
sg13
F0.02981651376146789
sg14
g5
sg15
F0.2658090233737996
sg16
g5
sg17
F0.002577319587628866
sg18
F0.004979378317594663
sg19
g5
sg20
F0.10466582597730138
sg21
F0.02018046444115597
sg22
F0.09848484848484848
sg23
F0.0
sg24
F0.027743194248933786
sg25
F0.23671272735129606
sg26
F0.01273290382561663
sg27
F0.0
sg28
F0.01447240932873726
ssS'HERMANN ROBERT J'
p228
(dp229
g3
g5
sg4
g5
sg6
F0.2108741771099884
sg7
I00
sg8
g31
sg9
F0.8939528446421651
sg10
S'robert.hermann@enron.com'
p230
sg12
F0.015912853110321853
sg13
g31
sg14
g5
sg15
g5
sg16
g5
sg17
g5
sg18
F0.04019787394011445
sg19
g5
sg20
F0.07944514501891552
sg21
F0.014489614726693285
sg22
g5
sg23
g5
sg24
F0.03042737999817234
sg25
F0.23603752674919717
sg26
F0.012527205940113062
sg27
g31
sg28
F0.005174849828535431
ssS'SCRIMSHAW MATTHEW'
p231
(dp232
g3
g5
sg4
g5
sg6
g5
sg7
I00
sg8
g31
sg9
g5
sg10
S'matthew.scrimshaw@enron.com'
p233
sg12
g5
sg13
g31
sg14
g5
sg15
g5
sg16
g5
sg17
g5
sg18
g5
sg19
g5
sg20
g5
sg21
F0.01634957896045078
sg22
g5
sg23
g5
sg24
g5
sg25
g5
sg26
g5
sg27
g31
sg28
F0.021834157911184506
ssS'GATHMANN WILLIAM D'
p234
(dp235
g3
g5
sg4
g5
sg6
g5
sg7
I00
sg8
g31
sg9
g5
sg10
g5
sg12
g5
sg13
g31
sg14
F0.39048537411171097
sg15
g5
sg16
g5
sg17
g5
sg18
g5
sg19
g5
sg20
g5
sg21
F0.040473737213470654
sg22
g5
sg23
g5
sg24
F0.015720641005499674
sg25
g5
sg26
g5
sg27
g31
sg28
F0.05078727627096763
ssS'HAEDICKE MARK E'
p236
(dp237
g3
F0.26186058839120063
sg4
F0.33487401287640234
sg6
F0.3325284867572119
sg7
I00
sg8
F0.03142709943328181
sg9
F0.7124988147670872
sg10
S'mark.haedicke@enron.com'
p238
sg12
F0.18007978785751813
sg13
F0.04489897730107259
sg14
F0.33187571581126035
sg15
F0.33429969197318354
sg16
g5
sg17
F0.13436890498746168
sg18
F0.005056117791520954
sg19
g5
sg20
F0.13619167717528374
sg21
F0.017235302371389805
sg22
F0.3409090909090909
sg23
F0.10016420361247948
sg24
F0.03338320241229109
sg25
F0.33638313943072484
sg26
F0.03726274843835164
sg27
F0.03142709943328181
sg28
F0.0174423922759068
ssS'BOWEN JR RAYMOND M'
p239
(dp240
g3
F0.1193347468857673
sg4
g5
sg6
F0.28764079347374405
sg7
I01
sg8
F0.5555555555555556
sg9
F0.9713511877004153
sg10
S'raymond.bowen@enron.com'
p241
sg12
F0.17829637105313392
sg13
F0.07534983853606028
sg14
g5
sg15
F0.2882768617503171
sg16
g5
sg17
F0.0010448592922819727
sg18
F0.00015627824941719025
sg19
g5
sg20
F0.1614123581336696
sg21
F0.006024880370782777
sg22
F0.26515151515151514
sg23
F0.024630541871921183
sg24
F0.014908786159551813
sg25
F0.25038598967753317
sg26
F0.02577684579741462
sg27
F0.5555555555555556
sg28
g5
ssS'GILLIS JOHN'
p242
(dp243
g3
g5
sg4
g5
sg6
g5
sg7
I00
sg8
g31
sg9
g5
sg10
g5
sg12
g5
sg13
g31
sg14
g5
sg15
g5
sg16
g5
sg17
g5
sg18
g5
sg19
g5
sg20
g5
sg21
F0.0026393284101973767
sg22
g5
sg23
g5
sg24
F0.0029450275554044427
sg25
g5
sg26
g5
sg27
g31
sg28
F0.0
ssS'FITZGERALD JAY L'
p244
(dp245
g3
F0.05824277763053273
sg4
g5
sg6
F0.10376396999322005
sg7
I00
sg8
F0.5
sg9
g5
sg10
S'jay.fitzgerald@enron.com'
p246
sg12
F0.09597571889742172
sg13
F0.0010683760683760685
sg14
g5
sg15
F0.13063960862475085
sg16
g5
sg17
F0.00027862914460852607
sg18
F0.027550146833019828
sg19
g5
sg20
F0.03530895334174023
sg21
F0.033879708804365756
sg22
F0.001893939393939394
sg23
F0.013136288998357963
sg24
F0.06275377253155189
sg25
F0.1788651408333416
sg26
F0.013660813534074976
sg27
F0.5
sg28
F0.019064794785783372
ssS'MORAN MICHAEL P'
p247
(dp248
g3
F0.04075006626027034
sg4
g5
sg6
g5
sg7
I00
sg8
F0.0
sg9
g5
sg10
S'michael.moran@enron.com'
p249
sg12
g5
sg13
F0.0
sg14
g5
sg15
F0.0226490306214894
sg16
g5
sg17
F0.0004876010030649206
sg18
g5
sg19
g5
sg20
g5
sg21
F0.005395961209477015
sg22
F0.0
sg23
F0.0
sg24
F0.008767733610586945
sg25
g5
sg26
g5
sg27
F0.0
sg28
F0.0014483999790206824
ssS'REDMOND BRIAN L'
p250
(dp251
g3
F0.10694407633183144
sg4
g5
sg6
F0.06360475034446558
sg7
I00
sg8
F0.22171945701357465
sg9
g5
sg10
S'brian.redmond@enron.com'
p252
sg12
g5
sg13
F0.12208258527827648
sg14
g5
sg15
F0.19224497191520204
sg16
g5
sg17
F0.014558372805795486
sg18
g5
sg19
g5
sg20
g5
sg21
F0.16141899738274498
sg22
F0.38636363636363635
sg23
F0.08045977011494253
sg24
F0.023682494283137873
sg25
F0.08675247416007295
sg26
F0.0010755251237101093
sg27
F0.22171945701357465
sg28
F0.21839096962102192
ssS'BAZELIDES PHILIP J'
p253
(dp254
g3
g5
sg4
F0.10542606989312558
sg6
g5
sg7
I00
sg8
g31
sg9
g5
sg10
g5
sg12
F0.0048317534476009765
sg13
g31
sg14
g5
sg15
g5
sg16
g5
sg17
g5
sg18
F8.417210221852372e-05
sg19
g5
sg20
g5
sg21
F0.033440376809528535
sg22
g5
sg23
g5
sg24
g5
sg25
F0.07232838876430188
sg26
F0.008304277211456258
sg27
g31
sg28
F0.046298884627760245
ssS'BELDEN TIMOTHY N'
p255
(dp256
g3
F0.5257089848926584
sg4
F0.3327687100338696
sg6
F0.07526627736587713
sg7
I01
sg8
F0.2231404958677686
sg9
F0.3243662261574111
sg10
S'tim.belden@enron.com'
p257
sg12
g5
sg13
F0.028532098610937303
sg14
g5
sg15
F1.0
sg16
g5
sg17
F0.032878239063806075
sg18
F0.020337987670910634
sg19
g5
sg20
F0.6532155107187894
sg21
F0.02349338777374559
sg22
F0.4318181818181818
sg23
F0.17733990147783252
sg24
F0.008493924395525253
sg25
F0.19222691061514377
sg26
F0.053123801264479034
sg27
F0.2231404958677686
sg28
F0.027471519571528012
ssS'DURAN WILLIAM D'
p258
(dp259
g3
F0.05612244897959184
sg4
g5
sg6
F0.11214049821752728
sg7
I00
sg8
F0.25
sg9
g5
sg10
S'w.duran@enron.com'
p260
sg12
F0.2040882461347647
sg13
F0.1172566371681416
sg14
g5
sg15
F0.10817177024823338
sg16
g5
sg17
F0.0
sg18
F0.0001511622844887708
sg19
g5
sg20
F0.08575031525851198
sg21
F0.03427995968032906
sg22
F0.20075757575757575
sg23
F0.0049261083743842365
sg24
F0.010630627499026766
sg25
F0.18924972609362242
sg26
F0.020211685739169923
sg27
F0.25
sg28
F0.041995503541628586
ssS'THORN TERENCE H'
p261
(dp262
g3
F0.013848396501457727
sg4
F0.0013436611674444842
sg6
F0.20119852153183299
sg7
I00
sg8
F0.0
sg9
g5
sg10
S'terence.thorn@enron.com'
p263
sg12
F0.025762719477184854
sg13
F0.0
sg14
g5
sg15
F0.012864649393005979
sg16
g5
sg17
F0.002020061298411814
sg18
F0.041181297538052886
sg19
g5
sg20
g5
sg21
F0.09891101611702494
sg22
F0.0
sg23
F0.0
sg24
F0.022598595419150786
sg25
F0.1995136755129949
sg26
F0.008799808071956986
sg27
F0.0
sg28
F0.12937846791048238
ssS'FASTOW ANDREW S'
p264
(dp265
g3
g5
sg4
g5
sg6
F0.24396037005445836
sg7
I01
sg8
g31
sg9
F0.5873018997550796
sg10
S'andrew.fastow@enron.com'
p266
sg12
F0.3283614491202198
sg13
g31
sg14
g5
sg15
g5
sg16
g5
sg17
g5
sg18
F0.026782752093756912
sg19
g5
sg20
F0.15510718789407313
sg21
F0.03740282793091964
sg22
g5
sg23
g5
sg24
F0.11962278554336227
sg25
F0.3963166456754302
sg26
F0.023406173321664052
sg27
g31
sg28
g5
ssS'FOY JOE'
p267
(dp268
g3
F0.0
sg4
F0.027074811470706863
sg6
g5
sg7
I00
sg8
F0.0
sg9
g5
sg10
S'tracy.foy@enron.com'
p269
sg12
g5
sg13
F0.0
sg14
g5
sg15
F0.0
sg16
g5
sg17
F6.965728615213152e-05
sg18
g5
sg19
g5
sg20
g5
sg21
F0.007883908773479264
sg22
F0.0
sg23
F0.0
sg24
g5
sg25
g5
sg26
F0.0017536464131370864
sg27
F0.0
sg28
F0.009715922740080611
ssS'CALGER CHRISTOPHER F'
p270
(dp271
g3
F0.1683673469387755
sg4
g5
sg6
F0.1560265074470179
sg7
I01
sg8
F0.1736111111111111
sg9
F0.8988046752794516
sg10
S'christopher.calger@enron.com'
p272
sg12
F0.060297138948715884
sg13
F0.07659738260200154
sg14
g5
sg15
F0.39608624750860666
sg16
g5
sg17
F0.00919476177208136
sg18
F4.671937783688701e-05
sg19
g5
sg20
F0.14880201765447668
sg21
F0.00346094739345721
sg22
F0.3768939393939394
sg23
F0.041050903119868636
sg24
F0.006352468838501717
sg25
F0.21580491564043677
sg26
F0.01582806700428531
sg27
F0.1736111111111111
sg28
g5
ssS'RICE KENNETH D'
p273
(dp274
g3
F0.05618870924993374
sg4
g5
sg6
F0.20471972530236424
sg7
I01
sg8
F0.2222222222222222
sg9
F0.0
sg10
S'ken.rice@enron.com'
p275
sg12
F0.304910099284683
sg13
F0.04640883977900553
sg14
g5
sg15
F0.1561877151657909
sg16
g5
sg17
F0.00041794371691278906
sg18
F0.016876603022454164
sg19
g5
sg20
F0.21185372005044137
sg21
F0.45950590846095235
sg22
F0.07954545454545454
sg23
F0.006568144499178982
sg24
F0.18438867900394548
sg25
F0.37825547970301976
sg26
F0.004875470556122512
sg27
F0.2222222222222222
sg28
F0.5761557823254257
ssS'KAMINSKI WINCENTY J'
p276
(dp277
g3
F0.3014842300556586
sg4
g5
sg6
F0.3649673031078451
sg7
I00
sg8
F0.011901447661469933
sg9
g5
sg10
S'vince.kaminski@enron.com'
p278
sg12
F0.050085191494206996
sg13
F0.008899500759713479
sg14
g5
sg15
F0.10527269432868273
sg16
g5
sg17
F1.0
sg18
F0.0004504944966213878
sg19
g5
sg20
F0.0416141235813367
sg21
F0.020753681310178133
sg22
F0.07765151515151515
sg23
F0.28078817733990147
sg24
F0.006352468838501717
sg25
F0.24723505353440506
sg26
F0.01049320901013131
sg27
F0.011901447661469933
sg28
F0.024468308693361557
ssS'LOCKHART EUGENE E'
p279
(dp280
g3
g5
sg4
g5
sg6
g5
sg7
I00
sg8
g31
sg9
g5
sg10
g5
sg12
g5
sg13
g31
sg14
g5
sg15
g5
sg16
g5
sg17
g5
sg18
g5
sg19
g5
sg20
g5
sg21
g5
sg22
g5
sg23
g5
sg24
g5
sg25
g5
sg26
g5
sg27
g31
sg28
g5
ssS'COX DAVID'
p281
(dp282
g3
F0.002981712165385635
sg4
g5
sg6
F0.12122126719594077
sg7
I00
sg8
F0.12121212121212122
sg9
F0.9601456769080032
sg10
S'chip.cox@enron.com'
p283
sg12
g5
sg13
F0.0
sg14
g5
sg15
F0.012502264903062148
sg16
g5
sg17
F0.0014628030091947619
sg18
F4.7491598958157875e-05
sg19
g5
sg20
F0.09205548549810845
sg21
F0.010980268592059054
sg22
F0.0
sg23
F0.006568144499178982
sg24
F0.023465035588408737
sg25
F0.282513834860337
sg26
F0.010633920191595867
sg27
F0.12121212121212122
sg28
F0.003137811664378327
ssS'OVERDYKE JR JERE C'
p284
(dp285
g3
g5
sg4
g5
sg6
F0.08173566913807055
sg7
I00
sg8
g31
sg9
g5
sg10
S'jere.overdyke@enron.com'
p286
sg12
F0.013122582965916901
sg13
g31
sg14
g5
sg15
g5
sg16
g5
sg17
g5
sg18
F1.67958093876412e-05
sg19
g5
sg20
g5
sg21
F0.14956384881356252
sg22
g5
sg23
g5
sg24
F0.13636527194829004
sg25
F0.08504286623555858
sg26
F0.0024105818439219256
sg27
g31
sg28
F0.15308655299413798
ssS'PEREIRA PAULO V. FERRAZ'
p287
(dp288
g3
g5
sg4
g5
sg6
F0.12157557465608118
sg7
I00
sg8
g31
sg9
F0.943510829008735
sg10
g5
sg12
g5
sg13
g31
sg14
g5
sg15
g5
sg16
g5
sg17
g5
sg18
g5
sg19
F0.8046472660966415
sg20
g5
sg21
g5
sg22
g5
sg23
g5
sg24
g5
sg25
g5
sg26
F0.0002683863970371857
sg27
g31
sg28
g5
ssS'STABLER FRANK'
p289
(dp290
g3
g5
sg4
g5
sg6
F0.07158760361306125
sg7
I00
sg8
g31
sg9
g5
sg10
S'frank.stabler@enron.com'
p291
sg12
g5
sg13
g31
sg14
g5
sg15
g5
sg16
g5
sg17
g5
sg18
F0.03437050030372422
sg19
g5
sg20
F0.05422446406052964
sg21
F0.011307829807566077
sg22
g5
sg23
g5
sg24
F0.03253896299020031
sg25
F0.2151864318889142
sg26
F0.010737184354001986
sg27
g31
sg28
g5
ssS'SKILLING JEFFREY K'
p292
(dp293
g3
F0.23654916512059368
sg4
g5
sg6
F0.1276731623034359
sg7
I01
sg8
F0.2777777777777778
sg9
g5
sg10
S'jeff.skilling@enron.com'
p294
sg12
F0.3645981224972721
sg13
F0.0242624758753791
sg14
g5
sg15
F0.369632179742707
sg16
g5
sg17
F0.006687099470604625
sg18
F0.0021351914003139272
sg19
g5
sg20
F0.6973518284993695
sg21
F0.5317507033126446
sg22
F0.16666666666666666
sg23
F0.04926108374384237
sg24
F0.46242812083778423
sg25
F1.0
sg26
F0.08384122985357859
sg27
F0.2777777777777778
sg28
F0.5603084472244209
ssS'BLAKE JR. NORMAN P'
p295
(dp296
g3
g5
sg4
g5
sg6
F0.004947181943442031
sg7
I00
sg8
g31
sg9
F0.9400358092825778
sg10
g5
sg12
g5
sg13
g31
sg14
g5
sg15
g5
sg16
g5
sg17
g5
sg18
g5
sg19
F0.9075967769755809
sg20
g5
sg21
g5
sg22
g5
sg23
g5
sg24
g5
sg25
g5
sg26
F1.0921242536124955e-05
sg27
g31
sg28
g5
ssS'SHERRICK JEFFREY B'
p297
(dp298
g3
F0.036840710310098064
sg4
g5
sg6
g5
sg7
I00
sg8
F0.72
sg9
g5
sg10
S'jeffrey.sherrick@enron.com'
p299
sg12
g5
sg13
F0.0636215334420881
sg14
g5
sg15
F0.10527269432868273
sg16
g5
sg17
F0.0009055447199777097
sg18
g5
sg19
g5
sg20
g5
sg21
F0.03817704503652396
sg22
F0.07386363636363637
sg23
F0.029556650246305417
sg24
F0.025360381945184658
sg25
g5
sg26
g5
sg27
F0.72
sg28
F0.04125581077447551
ssS'PRENTICE JAMES'
p300
(dp301
g3
g5
sg4
F0.08667775141691991
sg6
g5
sg7
I00
sg8
g31
sg9
g5
sg10
S'james.prentice@enron.com'
p302
sg12
g5
sg13
g31
sg14
g5
sg15
g5
sg16
g5
sg17
g5
sg18
g5
sg19
g5
sg20
g5
sg21
F0.02317469660916466
sg22
g5
sg23
g5
sg24
F0.011972720373646042
sg25
g5
sg26
F0.005448068115722104
sg27
g31
sg28
F0.025523128052379333
ssS'GRAY RODNEY'
p303
(dp304
g3
g5
sg4
F0.013339089136378726
sg6
g5
sg7
I00
sg8
g31
sg9
g5
sg10
g5
sg12
F0.058390401817418544
sg13
g31
sg14
g5
sg15
g5
sg16
g5
sg17
g5
sg18
F0.06571900977699509
sg19
g5
sg20
g5
sg21
g5
sg22
g5
sg23
g5
sg24
g5
sg25
F0.005525841727577263
sg26
F0.011071011299816642
sg27
g31
sg28
g5
ssS'PICKERING MARK R'
p305
(dp306
g3
F0.05572488735754042
sg4
g5
sg6
F0.1378081053299215
sg7
I00
sg8
F0.0
sg9
g5
sg10
S'mark.pickering@enron.com'
p307
sg12
g5
sg13
F0.0077951002227171495
sg14
g5
sg15
F0.13154556984961044
sg16
F0.0
sg17
F0.0038311507383672334
sg18
g5
sg19
g5
sg20
F0.029003783102143757
sg21
F0.0014829056927844434
sg22
F0.013257575757575758
sg23
F0.0
sg24
g5
sg25
F0.589279074813127
sg26
F0.013388825347943207
sg27
F0.0
sg28
F0.0005531678784280573
ssS'THE TRAVEL AGENCY IN THE PARK'
p308
(dp309
g3
g5
sg4
g5
sg6
g5
sg7
I00
sg8
g31
sg9
g5
sg10
g5
sg12
g5
sg13
g31
sg14
g5
sg15
g5
sg16
g5
sg17
g5
sg18
F0.034952079335681334
sg19
g5
sg20
g5
sg21
g5
sg22
g5
sg23
g5
sg24
g5
sg25
g5
sg26
F0.003495067987148855
sg27
g31
sg28
g5
ssS'NOLES JAMES L'
p310
(dp311
g3
g5
sg4
F0.11940123654216238
sg6
g5
sg7
I00
sg8
g31
sg9
g5
sg10
g5
sg12
g5
sg13
g31
sg14
F0.38544492437162303
sg15
g5
sg16
g5
sg17
g5
sg18
g5
sg19
g5
sg20
g5
sg21
F0.008398025876583292
sg22
g5
sg23
g5
sg24
F0.029248024710585765
sg25
g5
sg26
F0.007476396814608625
sg27
g31
sg28
g5
ssS'KEAN STEVEN J'
p312
(dp313
g3
F0.8413066525311423
sg4
g5
sg6
F0.1828620169280231
sg7
I00
sg8
F0.05725699067909454
sg9
g5
sg10
S'steven.kean@enron.com'
p314
sg12
F0.04546245221091085
sg13
F0.010976948408342482
sg14
g5
sg15
F0.6589961949628556
sg16
g5
sg17
F0.46997770966843133
sg18
F0.00011863246975523583
sg19
g5
sg20
F0.11727616645649433
sg21
F0.12608767219367814
sg22
F0.26515151515151514
sg23
F0.6354679802955665
sg24
F0.2782991973649139
sg25
F0.3635829204856763
sg26
F0.016873116936621402
sg27
F0.05725699067909454
sg28
F0.05860012095432831
ssS'FOWLER PEGGY'
p315
(dp316
g3
F0.03047972435727538
sg4
g5
sg6
g5
sg7
I00
sg8
F0.0
sg9
g5
sg10
S'kulvinder.fowler@enron.com'
p317
sg12
g5
sg13
F0.0
sg14
g5
sg15
F0.0014495379597753216
sg16
g5
sg17
F0.0016717748676511562
sg18
g5
sg19
g5
sg20
g5
sg21
F0.0392406373815154
sg22
F0.0
sg23
F0.0
sg24
F0.03582738925866749
sg25
g5
sg26
g5
sg27
F0.0
sg28
F0.038288565272979684
ssS'WASAFF GEORGE'
p318
(dp319
g3
F0.022727272727272728
sg4
F0.12826519400364136
sg6
g5
sg7
I00
sg8
F0.23333333333333334
sg9
F0.8098567573247394
sg10
S'george.wasaff@enron.com'
p320
sg12
F0.025762719477184854
sg13
F0.055
sg14
g5
sg15
F0.060699402065591594
sg16
g5
sg17
F0.0012538311507383673
sg18
F0.00013735883194605417
sg19
g5
sg20
F0.03215636822194199
sg21
F0.04273330131027945
sg22
F0.041666666666666664
sg23
F0.011494252873563218
sg24
F0.0241497283565459
sg25
F0.23363651340813354
sg26
F0.009986969345057141
sg27
F0.23333333333333334
sg28
F0.04829719084781051
ssS'WHITE JR THOMAS E'
p321
(dp322
g3
g5
sg4
g5
sg6
F0.3552041642061982
sg7
I00
sg8
g31
sg9
g5
sg10
S'thomas.white@enron.com'
p323
sg12
g5
sg13
g31
sg14
g5
sg15
g5
sg16
g5
sg17
g5
sg18
F0.10477698881447359
sg19
g5
sg20
F0.04791929382093316
sg21
F0.3089913976984781
sg22
g5
sg23
g5
sg24
F0.9379044422812483
sg25
F0.2854442054734462
sg26
F0.018677265647250915
sg27
g31
sg28
F0.03748687227349319
ssS'CHRISTODOULOU DIOMEDES'
p324
(dp325
g3
g5
sg4
g5
sg6
g5
sg7
I00
sg8
g31
sg9
g5
sg10
S'diomedes.christodoulou@enron.com'
p326
sg12
g5
sg13
g31
sg14
g5
sg15
g5
sg16
g5
sg17
g5
sg18
g5
sg19
g5
sg20
g5
sg21
F0.12454646015696207
sg22
g5
sg23
g5
sg24
F0.062343364223828614
sg25
g5
sg26
g5
sg27
g31
sg28
F0.1490263095030048
ssS'ALLEN PHILLIP K'
p327
(dp328
g3
F0.18851046912271402
sg4
F0.4458238154088414
sg6
F0.06001355991514118
sg7
I00
sg8
F0.029612756264236904
sg9
F0.117367446600752
sg10
S'phillip.allen@enron.com'
p329
sg12
F0.046409024368766386
sg13
F0.016195727084769126
sg14
F0.3782791840377789
sg15
F0.25457510418554086
sg16
g5
sg17
F0.15206185567010308
sg18
F1.447914602382862e-05
sg19
g5
sg20
F0.5176544766708702
sg21
F0.03608308234920695
sg22
F0.08901515151515152
sg23
F0.10673234811165845
sg24
F0.006352468838501717
sg25
F0.18138408921290516
sg26
F0.04330155824694069
sg27
F0.029612756264236904
sg28
F0.05008180157473601
ssS'SHARP VICTORIA T'
p330
(dp331
g3
F0.20401537238271933
sg4
F0.027964977257463705
sg6
F0.508229993657459
sg7
I00
sg8
F0.04411764705882353
sg9
g5
sg10
S'vicki.sharp@enron.com'
p332
sg12
F0.06952725172377586
sg13
F0.007653061224489796
sg14
g5
sg15
F0.4484508063054901
sg16
g5
sg17
F0.008637503482864307
sg18
F0.00023156980874109906
sg19
g5
sg20
F0.06683480453972257
sg21
F0.010949813394269228
sg22
F0.045454545454545456
sg23
F0.009852216748768473
sg24
F0.012261533763398695
sg25
F0.2229683438949712
sg26
F0.015221788371329393
sg27
F0.04411764705882353
sg28
F0.007899860509669867
ssS'JAEDICKE ROBERT'
p333
(dp334
g3
g5
sg4
g5
sg6
g5
sg7
I00
sg8
g31
sg9
F0.9646509482140551
sg10
g5
sg12
g5
sg13
g31
sg14
F0.39693501856840024
sg15
g5
sg16
g5
sg17
g5
sg18
g5
sg19
F0.8662494147795875
sg20
g5
sg21
F0.009680623034004581
sg22
g5
sg23
g5
sg24
F0.0007897898831670404
sg25
g5
sg26
F0.0008072835707383895
sg27
g31
sg28
F0.012287840315824349
ssS'WINOKUR JR. HERBERT S'
p335
(dp336
g3
g5
sg4
g5
sg6
F0.005533320210834809
sg7
I00
sg8
g31
sg9
F0.9646509482140551
sg10
g5
sg12
g5
sg13
g31
sg14
g5
sg15
g5
sg16
g5
sg17
g5
sg18
g5
sg19
F0.8648448857896164
sg20
g5
sg21
g5
sg22
g5
sg23
g5
sg24
g5
sg25
g5
sg26
F0.0008192766593589617
sg27
g31
sg28
g5
ssS'BROWN MICHAEL'
p337
(dp338
g3
F0.09468592631857937
sg4
g5
sg6
F0.21494652581851584
sg7
I00
sg8
F0.024390243902439025
sg9
g5
sg10
S'michael.brown@enron.com'
p339
sg12
g5
sg13
F0.008748317631224764
sg14
g5
sg15
F0.13752491393368363
sg16
g5
sg17
F0.002020061298411814
sg18
g5
sg19
g5
sg20
g5
sg21
g5
sg22
F0.02462121212121212
sg23
F0.0016420361247947454
sg24
g5
sg25
g5
sg26
F0.0004745091584661187
sg27
F0.024390243902439025
sg28
g5
ssS'BADUM JAMES P'
p340
(dp341
g3
g5
sg4
F0.026642503095094288
sg6
F0.01460096669072458
sg7
I00
sg8
g31
sg9
g5
sg10
g5
sg12
g5
sg13
g31
sg14
g5
sg15
g5
sg16
g5
sg17
g5
sg18
g5
sg19
g5
sg20
g5
sg21
F0.006142103383251037
sg22
g5
sg23
g5
sg24
g5
sg25
g5
sg26
F0.0017605120218401676
sg27
g31
sg28
F0.007222604801287508
ssS'HUGHES JAMES A'
p342
(dp343
g3
F0.04386429896633978
sg4
g5
sg6
g5
sg7
I00
sg8
F0.14705882352941177
sg9
g5
sg10
S'james.hughes@enron.com'
p344
sg12
g5
sg13
F0.048678720445062586
sg14
g5
sg15
F0.10635984779851422
sg16
g5
sg17
F0.0015324602953468932
sg18
g5
sg19
g5
sg20
g5
sg21
F0.02364981397000877
sg22
F0.06628787878787878
sg23
F0.008210180623973728
sg24
F0.022470143389669822
sg25
g5
sg26
g5
sg27
F0.14705882352941177
sg28
F0.02170045989960971
ssS'REYNOLDS LAWRENCE'
p345
(dp346
g3
g5
sg4
F0.006761770354986712
sg6
F0.036134986768147324
sg7
I00
sg8
g31
sg9
F0.9161326418411894
sg10
g5
sg12
F0.017144086406179728
sg13
g31
sg14
F0.37503751249467765
sg15
g5
sg16
g5
sg17
g5
sg18
F0.01950340969409715
sg19
g5
sg20
F0.0037831021437578815
sg21
F0.0867878333254771
sg22
g5
sg23
g5
sg24
F0.011475342166469756
sg25
F0.06835010681673526
sg26
F0.003807728386863435
sg27
g31
sg28
F0.12088062112991797
ssS'DIMICHELE RICHARD G'
p347
(dp348
g3
g5
sg4
g5
sg6
F0.15600026244997048
sg7
I00
sg8
g31
sg9
g5
sg10
S'richard.dimichele@enron.com'
p349
sg12
F0.12324921087795603
sg13
g31
sg14
g5
sg15
g5
sg16
g5
sg17
g5
sg18
F0.03616765190820183
sg19
g5
sg20
F0.11727616645649433
sg21
F0.17011526854964149
sg22
g5
sg23
g5
sg24
F0.006352468838501717
sg25
F0.23615006018288034
sg26
F0.022866078770354997
sg27
g31
sg28
F0.23827286281864704
ssS'BHATNAGAR SANJAY'
p350
(dp351
g3
F0.030877285979326794
sg4
g5
sg6
F0.6023926688974914
sg7
I00
sg8
F0.034482758620689655
sg9
g5
sg10
S'sanjay.bhatnagar@enron.com'
p352
sg12
g5
sg13
F0.0
sg14
F1.0
sg15
F0.0835296249320529
sg16
g5
sg17
F0.0011841738645862357
sg18
g31
sg19
g31
sg20
g5
sS'total_stock_value'
p353
F0.3153421710641809
sg22
F0.0
sg23
F0.0016420361247947454
sg24
F0.17462075760355222
sg25
g5
sg26
F0.0013298230213129834
sg27
F0.034482758620689655
sg28
F0.44984185572490604
ssS'CARTER REBECCA C'
p354
(dp355
g3
F0.016896368937185265
sg4
g5
sg6
g5
sg7
I00
sg8
F0.4666666666666667
sg9
F0.9272802079134189
sg10
S'rebecca.carter@enron.com'
p356
sg12
F0.001138053560027351
sg13
F0.09294871794871795
sg14
F0.33700428291365636
sg15
F0.03515129552455155
sg16
g5
sg17
F0.00020897185845639453
sg18
F5.1931870405465315e-05
sg19
g5
sg20
F0.029003783102143757
sg21
g5
sg22
F0.054924242424242424
sg23
F0.011494252873563218
sg24
F0.018659558263518658
sg25
F0.23526869833027392
sg26
F0.004609990696665675
sg27
F0.4666666666666667
sg28
g5
ssS'BUCHANAN HAROLD G'
p357
(dp358
g3
F0.06831433872250199
sg4
g5
sg6
F0.001977123110906983
sg7
I00
sg8
F0.0
sg9
g5
sg10
S'john.buchanan@enron.com'
p359
sg12
F0.046409024368766386
sg13
F0.0
sg14
g5
sg15
F0.0038050371444102193
sg16
g5
sg17
F0.007871273335190861
sg18
F0.00011708802751269411
sg19
g5
sg20
F0.05422446406052964
sg21
F0.021536280207024548
sg22
F0.0
sg23
F0.0
sg24
F0.010630627499026766
sg25
F0.22285220939141018
sg26
F0.010182431583267787
sg27
F0.0
sg28
F0.02375348591137182
ssS'YEAP SOON'
p360
(dp361
g3
g5
sg4
g5
sg6
F0.24035605712661023
sg7
I00
sg8
g31
sg9
g5
sg10
g5
sg12
g5
sg13
g31
sg14
g5
sg15
g5
sg16
g5
sg17
g5
sg18
g5
sg19
g5
sg20
g5
sg21
F0.004818533100680307
sg22
g5
sg23
g5
sg24
g5
sg25
g5
sg26
F0.0005306024368855263
sg27
g31
sg28
F0.005327972055688615
ssS'MURRAY JULIA H'
p362
(dp363
g3
F0.1414656771799629
sg4
g5
sg6
F0.2512171117380749
sg7
I00
sg8
F0.044444444444444446
sg9
g5
sg10
S'julia.murray@enron.com'
p364
sg12
F0.010987919926890351
sg13
F0.005018248175182482
sg14
g5
sg15
F0.07120855227396268
sg16
g5
sg17
F0.00229869044302034
sg18
F3.166106597210525e-05
sg19
g5
sg20
F0.0416141235813367
sg21
F0.013051873054679327
sg22
F0.020833333333333332
sg23
F0.003284072249589491
sg24
F0.011169827297196854
sg25
F0.205987498885919
sg26
F0.007841336265685344
sg27
F0.044444444444444446
sg28
F0.011377144559351477
ssS'GARLAND C KEVIN'
p365
(dp366
g3
F0.010071561091969255
sg4
g5
sg6
F0.21108413708636792
sg7
I00
sg8
F0.6136363636363636
sg9
g5
sg10
S'kevin.garland@enron.com'
p367
sg12
F0.060297138948715884
sg13
F0.04784688995215311
sg14
g5
sg15
F0.03188983511505707
sg16
g5
sg17
F0.0022290331568682086
sg18
F0.00587003885334044
sg19
g5
sg20
F0.09836065573770492
sg21
F0.01912850895196666
sg22
F0.01893939393939394
sg23
F0.04433497536945813
sg24
F0.015441875660336444
sg25
F0.20838401088963532
sg26
F0.015124820097635522
sg27
F0.6136363636363636
sg28
F0.018243124257231246
ssS'DODSON KEITH'
p368
(dp369
g3
F0.007884972170686457
sg4
g5
sg6
F0.12254663954683638
sg7
I00
sg8
F0.21428571428571427
sg9
g5
sg10
S'keith.dodson@enron.com'
p370
sg12
g5
sg13
F0.056818181818181816
sg14
g5
sg15
F0.020293531436854504
sg16
g5
sg17
F0.00013931457230426304
sg18
F7.451933820263797e-05
sg19
g5
sg20
F0.0
sg21
g5
sg22
F0.01893939393939394
sg23
F0.0049261083743842365
sg24
g5
sg25
F0.19853238397127787
sg26
F0.0030880078818346663
sg27
F0.21428571428571427
sg28
g5
ssS'YEAGER F SCOTT'
p371
(dp372
g3
g5
sg4
g5
sg6
F0.2353257660258513
sg7
I01
sg8
g31
sg9
g5
sg10
S'scott.yeager@enron.com'
p373
sg12
g5
sg13
g31
sg14
g5
sg15
g5
sg16
g5
sg17
g5
sg18
F0.014281071306222644
sg19
g5
sg20
g5
sg21
F0.2426823758252377
sg22
g5
sg23
g5
sg24
F0.24059268798363853
sg25
F0.1421756403827577
sg26
F0.0034777253243770774
sg27
g31
sg28
F0.2416741973117643
ssS'HIRKO JOSEPH'
p374
(dp375
g3
g5
sg4
F0.00035799807104781737
sg6
F0.3404413533670144
sg7
I01
sg8
g31
sg9
g5
sg10
S'joe.hirko@enron.com'
p376
sg12
g5
sg13
g31
sg14
g5
sg15
g5
sg16
g5
sg17
g5
sg18
F0.0002754898850133792
sg19
g5
sg20
g5
sg21
F0.6268065633738387
sg22
g5
sg23
g5
sg24
g5
sg25
g5
sg26
F0.0008781895689194376
sg27
g31
sg28
F0.895676527809929
ssS'DIETRICH JANET R'
p377
(dp378
g3
F0.16664457990988604
sg4
g5
sg6
F0.014552850862804279
sg7
I00
sg8
F0.2222222222222222
sg9
g5
sg10
S'janet.dietrich@enron.com'
p379
sg12
F0.09597571889742172
sg13
F0.11858475894245724
sg14
g5
sg15
F0.3442652654466389
sg16
g5
sg17
F0.003552521593758707
sg18
F4.546451851482187e-05
sg19
g5
sg20
F0.06683480453972257
sg21
F0.03884065097954759
sg22
F0.5776515151515151
sg23
F0.022988505747126436
sg24
F0.019186876927883692
sg25
F0.22472746653030615
sg26
F0.013618393535435546
sg27
F0.2222222222222222
sg28
F0.044853804529663005
ssS'DERRICK JR. JAMES V'
p380
(dp381
g3
F0.14073681420620196
sg4
g5
sg6
F0.22297749491503183
sg7
I00
sg8
F0.022002200220022004
sg9
F0.6155963897944099
sg10
S'james.derrick@enron.com'
p382
sg12
F0.08170996044096669
sg13
F0.029344337459880788
sg14
F0.0
sg15
F0.25348795071570934
sg16
g5
sg17
F0.06248258567846197
sg18
F0.0007220267483882539
sg19
g5
sg20
F0.09205548549810845
sg21
F0.18057482853286244
sg22
F0.12121212121212122
sg23
F0.03284072249589491
sg24
F0.11914536764097848
sg25
F0.4428397676949822
sg26
F0.0053189927408499715
sg27
F0.022002200220022004
sg28
F0.2569153920483785
ssS'FREVERT MARK A'
p383
(dp384
g3
F0.21322554996024384
sg4
F1.0
sg6
F0.37984821643374234
sg7
I00
sg8
F0.2857142857142857
sg9
F0.03808687050269956
sg10
S'mark.frevert@enron.com'
p385
sg12
F0.304910099284683
sg13
F0.07389312977099237
sg14
g5
sg15
F0.5394093132813915
sg16
F0.019722650231124808
sg17
F0.0006269155753691836
sg18
F0.7169705340690927
sg19
g5
sg20
F0.24337957124842372
sg21
F0.29837301090888096
sg22
F0.4583333333333333
sg23
F0.009852216748768473
sg24
F0.28217400850580554
sg25
F0.9546931393316954
sg26
F0.1665936765233214
sg27
F0.2857142857142857
sg28
F0.3035569524553155
ssS'PAI LOU L'
p386
(dp387
g3
g5
sg4
g5
sg6
F0.13953152680270323
sg7
I00
sg8
g31
sg9
g5
sg10
S'lou.pai@enron.com'
p388
sg12
g5
sg13
g31
sg14
g5
sg15
g5
sg16
g5
sg17
g5
sg18
F0.17659297392682258
sg19
g5
sg20
F0.11727616645649433
sg21
F0.48545265873774984
sg22
g5
sg23
g5
sg24
F0.5717407300338905
sg25
F0.2353317170531365
sg26
F0.030158803653681895
sg27
g31
sg28
F0.44714614153683285
ssS'BAY FRANKLIN R'
p389
(dp390
g3
g5
sg4
F0.039335232789881464
sg6
F0.564241191522866
sg7
I00
sg8
g31
sg9
F0.9156776787511444
sg10
S'frank.bay@enron.com'
p391
sg12
g5
sg13
g31
sg14
F0.3881257869654612
sg15
g5
sg16
g5
sg17
g5
sg18
F6.46735189064345e-06
sg19
g5
sg20
F0.0416141235813367
sg21
F0.0021790012489479277
sg22
g5
sg23
g5
sg24
F0.0076946296053141666
sg25
F0.2153385770912538
sg26
F0.007991027779208784
sg27
g31
sg28
g5
ssS'HAYSLETT RODERICK J'
p392
(dp393
g3
F0.17174662072621255
sg4
g5
sg6
g5
sg7
I00
sg8
F0.03581526861451461
sg9
g5
sg10
S'rod.hayslett@enron.com'
p394
sg12
g5
sg13
F0.01321253303133258
sg14
g5
sg15
F0.10309838738901975
sg16
g5
sg17
F0.07307049317358595
sg18
g5
sg19
g5
sg20
g5
sg21
F0.00794960004513147
sg22
F0.06628787878787878
sg23
F0.06239737274220033
sg24
F0.02133193077114533
sg25
g5
sg26
g5
sg27
F0.03581526861451461
sg28
g5
ssS'FUGH JOHN L'
p395
(dp396
g3
g5
sg4
F0.006641191370221259
sg6
g5
sg7
I00
sg8
g31
sg9
g5
sg10
g5
sg12
g5
sg13
g31
sg14
g5
sg15
g5
sg16
g5
sg17
g5
sg18
g5
sg19
g5
sg20
g5
sg21
F0.004485295866346724
sg22
g5
sg23
g5
sg24
g5
sg25
g5
sg26
F0.0004870912796195854
sg27
g31
sg28
F0.00485095758616234
ssS'FALLON JAMES B'
p397
(dp398
g3
F0.11250993904055129
sg4
g5
sg6
F0.418940139535901
sg7
I00
sg8
F0.49333333333333335
sg9
g5
sg10
S'jim.fallon@enron.com'
p399
sg12
F0.06010861250645413
sg13
F0.023931623931623933
sg14
g5
sg15
F0.2902699764450081
sg16
g5
sg17
F0.004388409027584285
sg18
F0.03875382044333794
sg19
g5
sg20
F0.3064312736443884
sg21
F0.04834771804004181
sg22
F0.07954545454545454
sg23
F0.060755336617405585
sg24
F0.09231179299615988
sg25
F0.2737812404065248
sg26
F0.03549830631420183
sg27
F0.49333333333333335
sg28
F0.02709646039246642
ssS'KOENIG MARK E'
p400
(dp401
g3
F0.15352504638218925
sg4
g5
sg6
F0.5549460884018984
sg7
I01
sg8
F0.2459016393442623
sg9
g5
sg10
S'mark.koenig@enron.com'
p402
sg12
F0.04546245221091085
sg13
F0.02232518955349621
sg14
g5
sg15
F0.4111252038412756
sg16
g5
sg17
F0.0034132070214544443
sg18
F0.01452316262774106
sg19
g5
sg20
F0.07944514501891552
sg21
F0.039958928409147616
sg22
F0.10037878787878787
sg23
F0.024630541871921183
sg24
F0.08254726620542521
sg25
F0.2786048735079192
sg26
F0.01532713828827822
sg27
F0.2459016393442623
sg28
F0.019276684729633994
ssS'SAVAGE FRANK'
p403
(dp404
g3
g5
sg4
g5
sg6
g5
sg7
I00
sg8
g31
sg9
F0.9379564532951693
sg10
g5
sg12
g5
sg13
g31
sg14
g5
sg15
g5
sg16
g5
sg17
g5
sg18
g5
sg19
F1.0
sg20
g5
sg21
g5
sg22
g5
sg23
g5
sg24
g5
sg25
g5
sg26
F3.478188825386568e-05
sg27
g31
sg28
g5
ssS'IZZO LAWRENCE L'
p405
(dp406
g3
F0.029088258680095416
sg4
g5
sg6
F0.1222360737484417
sg7
I00
sg8
F0.2631578947368421
sg9
g5
sg10
S'larry.izzo@enron.com'
p407
sg12
F0.04792491880262661
sg13
F0.056451612903225805
sg14
g5
sg15
F0.07881862656278311
sg16
g5
sg17
F0.0004876010030649206
sg18
F0.14997760076110114
sg19
g5
sg20
g5
sg21
F0.11929960124848815
sg22
F0.05303030303030303
sg23
F0.008210180623973728
sg24
F0.2459291501513249
sg25
F0.07633998060823871
sg26
F0.01911408637988282
sg27
F0.2631578947368421
sg28
F0.06276814408842346
ssS'TILNEY ELIZABETH A'
p408
(dp409
g3
F0.026702888947786906
sg4
g5
sg6
g5
sg7
I00
sg8
F0.5789473684210527
sg9
F0.8121648424707628
sg10
S'elizabeth.tilney@enron.com'
p410
sg12
F0.04053751902747935
sg13
F0.021739130434782608
sg14
g5
sg15
F0.06830947635441204
sg16
g5
sg17
F0.0004876010030649206
sg18
F0.014677317269074754
sg19
g5
sg20
F0.029003783102143757
sg21
F0.02465986050298763
sg22
F0.01893939393939394
sg23
F0.0180623973727422
sg24
F0.03695589329356842
sg25
F0.22224092777964333
sg26
F0.003855217927794171
sg27
F0.5789473684210527
sg28
F0.01693276143239582
ssS'MARTIN AMANDA K'
p411
(dp412
g3
F0.09707129605088789
sg4
F0.01206864776588484
sg6
F0.035268901865581875
sg7
I00
sg8
F0.0
sg9
g5
sg10
S'a..martin@enron.com'
p413
sg12
F1.0
sg13
F0.005256241787122208
sg14
g5
sg15
F0.08606631636165972
sg16
g5
sg17
F0.01518528838116467
sg18
F0.27205852046101214
sg19
g5
sg20
g5
sg21
F0.043015657816708984
sg22
F0.015151515151515152
sg23
F0.0
sg24
g5
sg25
F0.3142023495180418
sg26
F0.08117899593031629
sg27
F0.0
sg28
F0.06000547896839418
ssS'BUY RICHARD B'
p414
(dp415
g3
F0.22965809700503578
sg4
F0.09995639527411389
sg6
g5
sg7
I00
sg8
F0.06742640075973409
sg9
F0.7789334068223948
sg10
S'rick.buy@enron.com'
p416
sg12
F0.13802401042825052
sg13
F0.04428044280442804
sg14
g5
sg15
F0.4223591230295343
sg16
g5
sg17
F0.07251323488436891
sg18
F0.03866607681843354
sg19
g5
sg20
F0.10466582597730138
sg21
F0.07097186116718356
sg22
F0.29545454545454547
sg23
F0.11658456486042693
sg24
F0.05901169062831102
sg25
F0.2971503833789019
sg26
F0.022745867852289374
sg27
F0.06742640075973409
sg28
F0.07376571559552796
ssS'GRAMM WENDY L'
p417
(dp418
g3
g5
sg4
g5
sg6
g5
sg7
I00
sg8
g31
sg9
g5
sg10
g5
sg12
g5
sg13
g31
sg14
g5
sg15
g5
sg16
g5
sg17
g5
sg18
g5
sg19
F0.9528373949683365
sg20
g5
sg21
g5
sg22
g5
sg23
g5
sg24
g5
sg25
g5
sg26
F0.0011504867557242014
sg27
g31
sg28
g5
ssS'CAUSEY RICHARD A'
p419
(dp420
g3
F0.121587596077392
sg4
g5
sg6
F0.13352579664501454
sg7
I01
sg8
F0.24489795918367346
sg9
F0.9064289805666161
sg10
S'richard.causey@enron.com'
p421
sg12
F0.055312318577773856
sg13
F0.0306553911205074
sg14
g5
sg15
F0.28682732379054177
sg16
g5
sg17
F0.002577319587628866
sg18
F0.0297201847114311
sg19
g5
sg20
F0.11727616645649433
sg21
F0.05179938849950292
sg22
F0.10984848484848485
sg23
F0.019704433497536946
sg24
F0.16766676393354876
sg25
F0.3733517227968429
sg26
F0.018043804611342574
sg27
F0.24489795918367346
sg28
g5
ssS'TAYLOR MITCHELL S'
p422
(dp423
g3
F0.03153988868274583
sg4
F0.03419333360232521
sg6
g5
sg7
I00
sg8
F0.0
sg9
g5
sg10
S'mitchell.taylor@enron.com'
p424
sg12
g5
sg13
F0.0
sg14
g5
sg15
F0.05399528900163073
sg16
g5
sg17
F0.0011841738645862357
sg18
g5
sg19
g5
sg20
F0.06683480453972257
sg21
F0.0770868661379723
sg22
F0.0
sg23
F0.0
sg24
F0.03607370213549462
sg25
F0.23833410906380287
sg26
F0.010549620945494744
sg27
F0.0
sg28
F0.09235812627202039
ssS'DONAHUE JR JEFFREY M'
p425
(dp426
g3
F0.05353829843625762
sg4
g5
sg6
F0.4204448526999541
sg7
I00
sg8
F0.5
sg9
F0.8884078953424089
sg10
S'jeff.donahue@enron.com'
p427
sg12
g5
sg13
F0.21734104046242775
sg14
g5
sg15
F0.1395180286283747
sg16
g5
sg17
F0.0006965728615213151
sg18
F8.581307210122428e-05
sg19
g5
sg20
F0.09205548549810845
sg21
F0.02288882056417959
sg22
F0.3560606060606061
sg23
F0.0180623973727422
sg24
F0.019186876927883692
sg25
F0.25038598967753317
sg26
F0.008455146790045486
sg27
F0.5
sg28
F0.022019459685885097
ssS'GLISAN JR BEN F'
p428
(dp429
g3
F0.05406838059899284
sg4
g5
sg6
F0.5504013297465171
sg7
I01
sg8
F0.375
sg9
g5
sg10
S'ben.glisan@enron.com'
p430
sg12
F0.000354595189207068
sg13
F0.05956471935853379
sg14
g5
sg15
F0.15799963761551006
sg16
g5
sg17
F0.00027862914460852607
sg18
F0.019335065489660103
sg19
g5
sg20
F0.06683480453972257
sg21
F0.016735894091266437
sg22
F0.09848484848484848
sg23
F0.009852216748768473
sg24
F0.024533387140159495
sg25
F0.24712161983325245
sg26
F0.012284090004364152
sg27
F0.375
sg28
F0.010918476800191599
ss.