(dp0
S'METTS MARK'
p1
(dp2
S'to_messages'
p3
I807
sS'deferral_payments'
p4
S'NaN'
p5
sS'expenses'
p6
I94299
sS'poi'
p7
I00
sS'fraction_shared_receipt'
p8
F0.034482758620689655
sS'deferred_income'
p9
g5
sS'email_address'
p10
S'mark.metts@enron.com'
p11
sS'long_term_incentive'
p12
g5
sS'fraction_from_poi'
p13
F0.21665480239394658
sS'restricted_stock_deferred'
p14
g5
sS'shared_receipt_with_poi'
p15
I702
sS'loan_advances'
p16
g5
sS'from_messages'
p17
I29
sS'other'
p18
I1740
sS'director_fees'
p19
g5
sS'bonus'
p20
F0.06683480453972257
sS'total_stock_value'
p21
F0.011333526753988486
sS'from_poi_to_this_person'
p22
I38
sS'from_this_person_to_poi'
p23
I1
sS'restricted_stock'
p24
I585062
sS'salary'
p25
F0.32887760953779366
sS'total_payments'
p26
I1061827
sS'fraction_to_poi'
p27
F0.034482758620689655
sS'exercised_stock_options'
p28
g5
ssS'BAXTER JOHN C'
p29
(dp30
g3
g5
sg4
I1295738
sg6
I11200
sg7
I00
sg8
S'NaN'
p31
sg9
F0.604623649192691
sg10
g5
sg12
I1586055
sg13
g31
sg14
g5
sg15
g5
sg16
g5
sg17
g5
sg18
I2660303
sg19
g5
sg20
F0.1424968474148802
sg21
F0.21585541371374178
sg22
g5
sg23
g5
sg24
I3942714
sg25
F0.24003381404615312
sg26
I5634343
sg27
g31
sg28
F0.19426373500990038
ssS'ELLIOTT STEVEN'
p32
(dp33
g3
g5
sg4
g5
sg6
I78552
sg7
I00
sg8
g31
sg9
F0.8858598685391658
sg10
S'steven.elliott@enron.com'
p34
sg12
g5
sg13
g31
sg14
g5
sg15
g5
sg16
g5
sg17
g5
sg18
I12961
sg19
g5
sg20
F0.03530895334174023
sg21
F0.13548825540002216
sg22
g5
sg23
g5
sg24
I1788391
sg25
F0.15346319391491212
sg26
I211725
sg27
g31
sg28
F0.14212995580685178
ssS'CORDES WILLIAM R'
p35
(dp36
g3
I764
sg4
g5
sg6
g5
sg7
I00
sg8
F0.0
sg9
g5
sg10
S'bill.cordes@enron.com'
p37
sg12
g5
sg13
F0.060223348557424526
sg14
g5
sg15
I58
sg16
g5
sg17
I12
sg18
g5
sg19
g5
sg20
g5
sg21
F0.020565620945501014
sg22
I10
sg23
I0
sg24
I386335
sg25
g5
sg26
g5
sg27
F0.0
sg28
F0.01869754023906812
ssS'HANNON KEVIN P'
p38
(dp39
g3
I1045
sg4
g5
sg6
I34039
sg7
I01
sg8
F0.65625
sg9
F0.11056633080761159
sg10
S'kevin.hannon@enron.com'
p40
sg12
I1617011
sg13
F0.14089382062506361
sg14
g5
sg15
I1035
sg16
g5
sg17
I32
sg18
I11350
sg19
g5
sg20
F0.18032786885245902
sg21
F0.1296271613128264
sg22
I32
sg23
I21
sg24
I853064
sg25
F0.21859934586565669
sg26
I288682
sg27
F0.65625
sg28
F0.16099086913346827
ssS'MORDAUNT KRISTINA M'
p41
(dp42
g3
g5
sg4
g5
sg6
I35018
sg7
I00
sg8
g31
sg9
g5
sg10
S'kristina.mordaunt@enron.com'
p43
sg12
g5
sg13
g31
sg14
g5
sg15
g5
sg16
g5
sg17
g5
sg18
I1411
sg19
g5
sg20
F0.03215636822194199
sg21
F0.0036615182000143435
sg22
g5
sg23
g5
sg24
I208510
sg25
F0.2400257116389279
sg26
I628522
sg27
g31
sg28
g5
ssS'MEYER ROCKFORD G'
p44
(dp45
g3
I232
sg4
I1848227
sg6
g5
sg7
I00
sg8
F0.0
sg9
g5
sg10
S'rockford.meyer@enron.com'
p46
sg12
g5
sg13
F0.0
sg14
g5
sg15
I22
sg16
g5
sg17
I28
sg18
g5
sg19
g5
sg20
g5
sg21
F0.018888566068366596
sg22
I0
sg23
I0
sg24
I462384
sg25
g5
sg26
I1848227
sg27
F0.0
sg28
F0.014085788809968589
ssS'MCMAHON JEFFREY'
p47
(dp48
g3
I2355
sg4
g5
sg6
I137108
sg7
I00
sg8
F0.5416666666666666
sg9
g5
sg10
S'jeffrey.mcmahon@enron.com'
p49
sg12
I694862
sg13
F0.11331707096715907
sg14
g5
sg15
I2228
sg16
g5
sg17
I48
sg18
I297353
sg19
g5
sg20
F0.31904161412358134
sg21
F0.03329287663239427
sg22
I58
sg23
I26
sg24
I558801
sg25
F0.3330728559455014
sg26
I4099771
sg27
F0.5416666666666666
sg28
F0.03186651772244171
ssS'HORTON STANLEY C'
p50
(dp51
g3
I2350
sg4
I3131860
sg6
g5
sg7
I00
sg8
F0.013979496738117428
sg9
g5
sg10
S'stanley.horton@enron.com'
p52
sg12
g5
sg13
F0.08614757808963332
sg14
g5
sg15
I1074
sg16
g5
sg17
I1073
sg18
g5
sg19
g5
sg20
g5
sg21
F0.14726286682009923
sg22
I44
sg23
I15
sg24
I2046079
sg25
g5
sg26
I3131860
sg27
F0.013979496738117428
sg28
F0.1514554721990405
ssS'PIPER GREGORY F'
p53
(dp54
g3
I1238
sg4
I1130036
sg6
I43057
sg7
I00
sg8
F0.21621621621621623
sg9
F0.9907237024814524
sg10
S'greg.piper@enron.com'
p55
sg12
g5
sg13
F0.22670831471487984
sg14
I-409554
sg15
I742
sg16
g5
sg17
I222
sg18
I778
sg19
g5
sg20
F0.0416141235813367
sg21
F0.017348610305191716
sg22
I61
sg23
I48
sg24
I409554
sg25
F0.17700518824142653
sg26
I1737629
sg27
F0.21621621621621623
sg28
F0.02535011566144798
ssS'HUMPHREY GENE E'
p56
(dp57
g3
I128
sg4
I2964506
sg6
I4994
sg7
I00
sg8
F1.0
sg9
g5
sg10
S'gene.humphrey@enron.com'
p58
sg12
g5
sg13
F0.35945811170212766
sg14
g5
sg15
I119
sg16
g5
sg17
I17
sg18
g5
sg19
g5
sg20
g5
sg21
F0.04592321145658793
sg22
I10
sg23
I17
sg24
g5
sg25
F0.11725713709543105
sg26
I3100224
sg27
F1.0
sg28
F0.06619274686976727
ssS'UMANOFF ADAM S'
p59
(dp60
g3
I111
sg4
g5
sg6
I53122
sg7
I00
sg8
F0.0
sg9
g5
sg10
S'adam.umanoff@enron.com'
p61
sg12
g5
sg13
F0.4974123059229442
sg14
g5
sg15
I41
sg16
g5
sg17
I18
sg18
g5
sg19
g5
sg20
F0.09063682219419925
sg21
g5
sg22
I12
sg23
I0
sg24
g5
sg25
F0.2593778611625514
sg26
I1130461
sg27
F0.0
sg28
g5
ssS'BLACHMAN JEREMY M'
p62
(dp63
g3
I2475
sg4
g5
sg6
I84208
sg7
I00
sg8
F0.14285714285714285
sg9
g5
sg10
S'jeremy.blachman@enron.com'
p64
sg12
I831809
sg13
F0.046475392220073075
sg14
g5
sg15
I2326
sg16
g5
sg17
I14
sg18
I272
sg19
g5
sg20
F0.09836065573770492
sg21
F0.018857617405251045
sg22
I25
sg23
I2
sg24
I189041
sg25
F0.22332845088275727
sg26
I2014835
sg27
F0.14285714285714285
sg28
F0.022001782776055887
ssS'SUNDE MARTIN'
p65
(dp66
g3
I2647
sg4
g5
sg6
g5
sg7
I00
sg8
F0.34210526315789475
sg9
g5
sg10
S'marty.sunde@enron.com'
p67
sg12
I476451
sg13
F0.06431407695584725
sg14
g5
sg15
I2565
sg16
g5
sg17
I38
sg18
I111122
sg19
g5
sg20
F0.07944514501891552
sg21
F0.01365331140508153
sg22
I37
sg23
I13
sg24
I698920
sg25
F0.23137684205977596
sg26
I1545059
sg27
F0.34210526315789475
sg28
g5
ssS'GIBBS DANA R'
p68
(dp69
g3
I169
sg4
I504610
sg6
g5
sg7
I00
sg8
F0.0
sg9
g5
sg10
S'dana.gibbs@enron.com'
p70
sg12
I461912
sg13
F0.0
sg14
g5
sg15
I23
sg16
g5
sg17
I12
sg18
g5
sg19
g5
sg20
g5
sg21
F0.04460920742083336
sg22
I0
sg23
I0
sg24
g5
sg25
g5
sg26
I966522
sg27
F0.0
sg28
F0.06431459704173564
ssS'LOWRY CHARLES P'
p71
(dp72
g3
g5
sg4
g5
sg6
g5
sg7
I00
sg8
g31
sg9
g5
sg10
g5
sg12
g5
sg13
g31
sg14
I-153686
sg15
g5
sg16
g5
sg17
g5
sg18
g5
sg19
g5
sg20
g5
sg21
F0.006996700167558792
sg22
g5
sg23
g5
sg24
I153686
sg25
g5
sg26
g5
sg27
g31
sg28
F0.010553784968575144
ssS'COLWELL WESLEY'
p73
(dp74
g3
I1758
sg4
I27610
sg6
I16514
sg7
I01
sg8
F0.275
sg9
F0.9591189286989522
sg10
S'wes.colwell@enron.com'
p75
sg12
g5
sg13
F0.6281315808583254
sg14
g5
sg15
I1132
sg16
g5
sg17
I40
sg18
I101740
sg19
g5
sg20
F0.1424968474148802
sg21
F0.013639497584415076
sg22
I240
sg23
I11
sg24
I698242
sg25
F0.25933554859148655
sg26
I1490344
sg27
F0.275
sg28
g5
ssS'MULLER MARK S'
p76
(dp77
g3
I136
sg4
I842924
sg6
g5
sg7
I00
sg8
F0.0
sg9
F0.7950175150768377
sg10
S's..muller@enron.com'
p78
sg12
I1725545
sg13
F0.4059762202753442
sg14
g5
sg15
I114
sg16
g5
sg17
I16
sg18
I947
sg19
g5
sg20
F0.12988650693568726
sg21
F0.028280639787715396
sg22
I12
sg23
I0
sg24
I360528
sg25
F0.22612648217785505
sg26
I3202070
sg27
F0.0
sg28
F0.03047641951191868
ssS'JACKSON CHARLENE R'
p79
(dp80
g3
I258
sg4
g5
sg6
I10181
sg7
I00
sg8
F0.3392857142857143
sg9
g5
sg10
S'charlene.jackson@enron.com'
p81
sg12
g5
sg13
F0.4458395183902359
sg14
g5
sg15
I117
sg16
g5
sg17
I56
sg18
I2435
sg19
g5
sg20
F0.02269861286254729
sg21
F0.01419965004987645
sg22
I25
sg23
I19
sg24
I540672
sg25
F0.259349952870998
sg26
I551174
sg27
F0.3392857142857143
sg28
F0.005103880093356217
ssS'WESTFAHL RICHARD K'
p82
(dp83
g3
g5
sg4
g5
sg6
I51870
sg7
I00
sg8
g31
sg9
F0.9971551736194657
sg10
S'dick.westfahl@enron.com'
p84
sg12
I256191
sg13
g31
sg14
g5
sg15
g5
sg16
g5
sg17
g5
sg18
I401130
sg19
g5
sg20
g5
sg21
F0.007255963984639358
sg22
g5
sg23
g5
sg24
I384930
sg25
F0.05695722199065342
sg26
I762135
sg27
g31
sg28
g5
ssS'WALTERS GARETH W'
p85
(dp86
g3
g5
sg4
I53625
sg6
I33785
sg7
I00
sg8
g31
sg9
g5
sg10
g5
sg12
g5
sg13
g31
sg14
g5
sg15
g5
sg16
g5
sg17
g5
sg18
g5
sg19
g5
sg20
g5
sg21
F0.02040555992019768
sg22
g5
sg23
g5
sg24
g5
sg25
g5
sg26
I87410
sg27
g31
sg28
F0.029719515783136176
ssS'WALLS JR ROBERT H'
p87
(dp88
g3
I671
sg4
g5
sg6
I50936
sg7
I00
sg8
F0.0
sg9
g5
sg10
S'rob.walls@enron.com'
p89
sg12
I540751
sg13
F0.11656942638805212
sg14
g5
sg15
I215
sg16
g5
sg17
I146
sg18
I2
sg19
g5
sg20
F0.09836065573770492
sg21
F0.11960158740766337
sg22
I17
sg23
I0
sg24
I1552453
sg25
F0.32104798335585505
sg26
I1798780
sg27
F0.0
sg28
F0.12629354136677926
ssS'KITCHEN LOUISE'
p90
(dp91
g3
I8305
sg4
g5
sg6
I5774
sg7
I00
sg8
F0.11226851851851852
sg9
g5
sg10
S'louise.kitchen@enron.com'
p92
sg12
g5
sg13
F0.1390568357948941
sg14
g5
sg15
I3669
sg16
g5
sg17
I1728
sg18
I93925
sg19
g5
sg20
F0.38209331651954603
sg21
F0.010560951140638548
sg22
I251
sg23
I194
sg24
I466101
sg25
F0.24394097486363198
sg26
I3471141
sg27
F0.11226851851851852
sg28
F0.002074605237764484
ssS'CHAN RONNIE'
p93
(dp94
g3
g5
sg4
g5
sg6
g5
sg7
I00
sg8
g31
sg9
F0.9720423809772537
sg10
g5
sg12
g5
sg13
g31
sg14
I-32460
sg15
g5
sg16
g5
sg17
g5
sg18
g5
sg19
I98784
sg20
g5
sg21
g5
sg22
g5
sg23
g5
sg24
I32460
sg25
g5
sg26
g5
sg27
g31
sg28
g5
ssS'SHANKMAN JEFFREY A'
p95
(dp96
g3
I3221
sg4
g5
sg6
I178979
sg7
I00
sg8
F0.030958597538232
sg9
g5
sg10
S'jeffrey.shankman@enron.com'
p97
sg12
I554422
sg13
F0.13427506985408258
sg14
g5
sg15
I1730
sg16
g5
sg17
I2681
sg18
I1191
sg19
g5
sg20
F0.24337957124842372
sg21
F0.041629660025166416
sg22
I94
sg23
I83
sg24
I630137
sg25
F0.27335091255612043
sg26
I3038702
sg27
F0.030958597538232
sg28
F0.04170513044787727
ssS'WODRASKA JOHN'
p98
(dp99
g3
g5
sg4
g5
sg6
g5
sg7
I00
sg8
g31
sg9
g5
sg10
S'john.wodraska@enron.com'
p100
sg12
g5
sg13
g31
sg14
g5
sg15
g5
sg16
g5
sg17
g5
sg18
I189583
sg19
g5
sg20
g5
sg21
g5
sg22
g5
sg23
g5
sg24
g5
sg25
g5
sg26
I189583
sg27
g31
sg28
g5
ssS'BERGSIEKER RICHARD P'
p101
(dp102
g3
I383
sg4
g5
sg6
I59175
sg7
I00
sg8
F0.0
sg9
F0.8615748070601472
sg10
S'rick.bergsieker@enron.com'
p103
sg12
I180250
sg13
F0.04805288595078051
sg14
g5
sg15
I233
sg16
g5
sg17
I59
sg18
I427316
sg19
g5
sg20
F0.02269861286254729
sg21
F0.012845039901159871
sg22
I4
sg23
I0
sg24
I659249
sg25
F0.16875063581390032
sg26
I618850
sg27
F0.0
sg28
g5
ssS'URQUHART JOHN A'
p104
(dp105
g3
g5
sg4
g5
sg6
I228656
sg7
I00
sg8
g31
sg9
F0.9897723824928579
sg10
g5
sg12
g5
sg13
g31
sg14
g5
sg15
g5
sg16
g5
sg17
g5
sg18
g5
sg19
I36666
sg20
g5
sg21
g5
sg22
g5
sg23
g5
sg24
g5
sg25
g5
sg26
I228656
sg27
g31
sg28
g5
ssS'BIBI PHILIPPE A'
p106
(dp107
g3
I1607
sg4
g5
sg6
I38559
sg7
I00
sg8
F0.2
sg9
g5
sg10
S'philippe.bibi@enron.com'
p108
sg12
I369721
sg13
F0.06585218922533066
sg14
g5
sg15
I1336
sg16
g5
sg17
I40
sg18
I425688
sg19
g5
sg20
F0.11727616645649433
sg21
F0.036979842416497696
sg22
I23
sg23
I8
sg24
I378082
sg25
F0.19189021058156377
sg26
I2047593
sg27
F0.2
sg28
F0.04239927677850171
ssS'RIEKER PAULA H'
p109
(dp110
g3
I1328
sg4
I214678
sg6
I33271
sg7
I01
sg8
F0.5853658536585366
sg9
F0.9716953047377904
sg10
S'paula.rieker@enron.com'
p111
sg12
g5
sg13
F0.12126297744168163
sg14
g5
sg15
I1258
sg16
g5
sg17
I82
sg18
I1950
sg19
g5
sg20
F0.07944514501891552
sg21
F0.03850936650388906
sg22
I35
sg23
I48
sg24
I283649
sg25
F0.22391812607525696
sg26
I1099100
sg27
F0.5853658536585366
sg28
F0.04733553200698654
ssS'WHALEY DAVID A'
p112
(dp113
g3
g5
sg4
g5
sg6
g5
sg7
I00
sg8
g31
sg9
g5
sg10
g5
sg12
g5
sg13
g31
sg14
g5
sg15
g5
sg16
g5
sg17
g5
sg18
g5
sg19
g5
sg20
g5
sg21
F0.0014245757241864922
sg22
g5
sg23
g5
sg24
g5
sg25
g5
sg26
g5
sg27
g31
sg28
F0.002589361511473057
ssS'BECK SALLY W'
p114
(dp115
g3
I7315
sg4
g5
sg6
I37172
sg7
I00
sg8
F0.08887865530739121
sg9
g5
sg10
S'sally.beck@enron.com'
p116
sg12
g5
sg13
F0.09057459897325518
sg14
g5
sg15
I2639
sg16
g5
sg17
I4343
sg18
I566
sg19
g5
sg20
F0.07944514501891552
sg21
F0.0019809793061631646
sg22
I144
sg23
I386
sg24
I126027
sg25
F0.20782944612844476
sg26
I969068
sg27
F0.08887865530739121
sg28
g5
ssS'HAUG DAVID L'
p117
(dp118
g3
I573
sg4
g5
sg6
I475
sg7
I00
sg8
F0.3684210526315789
sg9
g5
sg10
S'david.haug@enron.com'
p119
sg12
g5
sg13
F0.032119119230626415
sg14
g5
sg15
I471
sg16
g5
sg17
I19
sg18
g5
sg19
g5
sg20
g5
sg21
F0.04458932203887103
sg22
I4
sg23
I7
sg24
I2217299
sg25
g5
sg26
I475
sg27
F0.3684210526315789
sg28
g5
ssS'ECHOLS JOHN B'
p120
(dp121
g3
g5
sg4
g5
sg6
I21530
sg7
I00
sg8
g31
sg9
g5
sg10
S'john.echols@enron.com'
p122
sg12
I2234774
sg13
g31
sg14
g5
sg15
g5
sg16
g5
sg17
g5
sg18
I53775
sg19
g5
sg20
F0.01639344262295082
sg21
F0.019969792963834682
sg22
g5
sg23
g5
sg24
I407503
sg25
F0.1636398173897465
sg26
I2692324
sg27
g31
sg28
F0.01722945394860667
ssS'MENDELSOHN JOHN'
p123
(dp124
g3
g5
sg4
g5
sg6
I148
sg7
I00
sg8
g31
sg9
F0.9706249627164196
sg10
g5
sg12
g5
sg13
g31
sg14
g5
sg15
g5
sg16
g5
sg17
g5
sg18
g5
sg19
I103750
sg20
g5
sg21
g5
sg22
g5
sg23
g5
sg24
g5
sg25
g5
sg26
I148
sg27
g31
sg28
g5
ssS'HICKERSON GARY J'
p125
(dp126
g3
I1320
sg4
g5
sg6
I98849
sg7
I00
sg8
F0.037037037037037035
sg9
g5
sg10
S'gary.hickerson@enron.com'
p127
sg12
I69223
sg13
F0.13942617666021923
sg14
g5
sg15
I900
sg16
g5
sg17
I27
sg18
I1936
sg19
g5
sg20
F0.2055485498108449
sg21
F0.008400310668344428
sg22
I40
sg23
I1
sg24
I441096
sg25
F0.19023641924015625
sg26
I2081796
sg27
F0.037037037037037035
sg28
g5
ssS'CLINE KENNETH W'
p128
(dp129
g3
g5
sg4
g5
sg6
g5
sg7
I00
sg8
g31
sg9
g5
sg10
g5
sg12
g5
sg13
g31
sg14
I-472568
sg15
g5
sg16
g5
sg17
g5
sg18
g5
sg19
g5
sg20
g5
sg21
F0.0032745682264195227
sg22
g5
sg23
g5
sg24
I662086
sg25
g5
sg26
g5
sg27
g31
sg28
g5
ssS'LEWIS RICHARD'
p130
(dp131
g3
I952
sg4
g5
sg6
g5
sg7
I00
sg8
F0.0
sg9
g5
sg10
S'richard.lewis@enron.com'
p132
sg12
g5
sg13
F0.048330502413731456
sg14
g5
sg15
I739
sg16
g5
sg17
I26
sg18
g5
sg19
g5
sg20
g5
sg21
F0.016741189308836283
sg22
I10
sg23
I0
sg24
g5
sg25
g5
sg26
g5
sg27
F0.0
sg28
F0.02448190855644268
ssS'HAYES ROBERT E'
p133
(dp134
g3
I504
sg4
I7961
sg6
g5
sg7
I00
sg8
F0.0
sg9
g5
sg10
S'robert.hayes@enron.com'
p135
sg12
g5
sg13
F0.14606551840594392
sg14
g5
sg15
I50
sg16
g5
sg17
I12
sg18
g5
sg19
g5
sg20
g5
sg21
F0.0024983048526851783
sg22
I16
sg23
I0
sg24
I151418
sg25
g5
sg26
I7961
sg27
F0.0
sg28
g5
ssS'MCCARTY DANNY J'
p136
(dp137
g3
I1433
sg4
g5
sg6
g5
sg7
I00
sg8
F0.009302325581395349
sg9
g5
sg10
S'danny.mccarty@enron.com'
p138
sg12
g5
sg13
F0.08026978070110317
sg14
g5
sg15
I508
sg16
g5
sg17
I215
sg18
g5
sg19
g5
sg20
g5
sg21
F0.014875997528996798
sg22
I25
sg23
I2
sg24
I94556
sg25
g5
sg26
g5
sg27
F0.009302325581395349
sg28
F0.019062290314209546
ssS'KOPPER MICHAEL J'
p139
(dp140
g3
g5
sg4
g5
sg6
I118134
sg7
I01
sg8
g31
sg9
g5
sg10
S'michael.kopper@enron.com'
p141
sg12
I602671
sg13
g31
sg14
g5
sg15
g5
sg16
g5
sg17
g5
sg18
I907502
sg19
g5
sg20
F0.09205548549810845
sg21
F0.019482662228857927
sg22
g5
sg23
g5
sg24
I985032
sg25
F0.20150506715545188
sg26
I2652612
sg27
g31
sg28
g5
ssS'LEFF DANIEL P'
p142
(dp143
g3
I2822
sg4
g5
sg6
g5
sg7
I00
sg8
F0.2222222222222222
sg9
g5
sg10
S'dan.leff@enron.com'
p144
sg12
I1387399
sg13
F0.10923858135922916
sg14
g5
sg15
I2672
sg16
g5
sg17
I63
sg18
I3083
sg19
g5
sg20
F0.11727616645649433
sg21
F0.006758788686847613
sg22
I67
sg23
I14
sg24
I360528
sg25
F0.24601519111327977
sg26
I2664228
sg27
F0.2222222222222222
sg28
g5
ssS'LAVORATO JOHN J'
p145
(dp146
g3
I7259
sg4
g5
sg6
I49537
sg7
I00
sg8
F0.15899419729206962
sg9
g5
sg10
S'john.lavorato@enron.com'
p147
sg12
I2035380
sg13
F0.33466892163213385
sg14
g5
sg15
I3962
sg16
g5
sg17
I2585
sg18
I1552
sg19
g5
sg20
F1.0
sg21
F0.10469054596783132
sg22
I528
sg23
I411
sg24
I1008149
sg25
F0.30502052159696647
sg26
I10425757
sg27
F0.15899419729206962
sg28
F0.12083178393422839
ssS'BERBERIAN DAVID'
p148
(dp149
g3
g5
sg4
g5
sg6
I11892
sg7
I00
sg8
g31
sg9
g5
sg10
S'david.berberian@enron.com'
p150
sg12
g5
sg13
g31
sg14
g5
sg15
g5
sg16
g5
sg17
g5
sg18
g5
sg19
g5
sg20
g5
sg21
F0.05021910594018738
sg22
g5
sg23
g5
sg24
I869220
sg25
F0.1945523014887723
sg26
I228474
sg27
g31
sg28
F0.04701979385810963
ssS'DETMERING TIMOTHY J'
p151
(dp152
g3
g5
sg4
I875307
sg6
I52255
sg7
I00
sg8
g31
sg9
F0.7789649535771258
sg10
S'timothy.detmering@enron.com'
p153
sg12
I415657
sg13
g31
sg14
I-315068
sg15
g5
sg16
g5
sg17
g5
sg18
I1105
sg19
g5
sg20
F0.04476670870113493
sg21
F0.04072972424517046
sg22
g5
sg23
g5
sg24
I315068
sg25
F0.1890768747394851
sg26
I1204583
sg27
g31
sg28
F0.05876952224671136
ssS'WAKEHAM JOHN'
p154
(dp155
g3
g5
sg4
g5
sg6
I103773
sg7
I00
sg8
g31
sg9
g5
sg10
g5
sg12
g5
sg13
g31
sg14
g5
sg15
g5
sg16
g5
sg17
g5
sg18
g5
sg19
I109298
sg20
g5
sg21
g5
sg22
g5
sg23
g5
sg24
g5
sg25
g5
sg26
I213071
sg27
g31
sg28
g5
ssS'POWERS WILLIAM'
p156
(dp157
g3
I653
sg4
g5
sg6
g5
sg7
I00
sg8
F0.0
sg9
F0.9952428292079497
sg10
S'ken.powers@enron.com'
p158
sg12
g5
sg13
F0.0
sg14
g5
sg15
I12
sg16
g5
sg17
I26
sg18
g5
sg19
I17500
sg20
g5
sg21
g5
sg22
I0
sg23
I0
sg24
g5
sg25
g5
sg26
g5
sg27
F0.0
sg28
g5
ssS'GOLD JOSEPH'
p159
(dp160
g3
g5
sg4
g5
sg6
g5
sg7
I00
sg8
g31
sg9
g5
sg10
S'joe.gold@enron.com'
p161
sg12
I304805
sg13
g31
sg14
g5
sg15
g5
sg16
g5
sg17
g5
sg18
I819288
sg19
g5
sg20
F0.08575031525851198
sg21
F0.017294027376629134
sg22
g5
sg23
g5
sg24
I441096
sg25
F0.24523555948472292
sg26
I2146973
sg27
g31
sg28
F0.012426605514071766
ssS'BANNANTINE JAMES M'
p162
(dp163
g3
I566
sg4
g5
sg6
I56301
sg7
I00
sg8
F0.0
sg9
F0.9987809517937933
sg10
S'james.bannantine@enron.com'
p164
sg12
g5
sg13
F0.3170344335012405
sg14
I-560222
sg15
I465
sg16
g5
sg17
I29
sg18
I864523
sg19
g5
sg20
g5
sg21
F0.10624598624974736
sg22
I39
sg23
I0
sg24
I1757552
sg25
F0.0
sg26
I916197
sg27
F0.0
sg28
F0.11754574249879458
ssS'DUNCAN JOHN H'
p165
(dp166
g3
g5
sg4
g5
sg6
g5
sg7
I00
sg8
g31
sg9
F0.993102145165208
sg10
g5
sg12
g5
sg13
g31
sg14
g5
sg15
g5
sg16
g5
sg17
g5
sg18
g5
sg19
I102492
sg20
g5
sg21
F0.0069874298306808625
sg22
g5
sg23
g5
sg24
g5
sg25
g5
sg26
I77492
sg27
g31
sg28
F0.010540534566643858
ssS'SHAPIRO RICHARD S'
p167
(dp168
g3
I15149
sg4
g5
sg6
I137767
sg7
I00
sg8
F0.053497942386831275
sg9
g5
sg10
S'richard.shapiro@enron.com'
p169
sg12
g5
sg13
F0.02247532664890457
sg14
g5
sg15
I4527
sg16
g5
sg17
I1215
sg18
I705
sg19
g5
sg20
F0.07313997477931904
sg21
F0.019522779357017583
sg22
I74
sg23
I65
sg24
I379164
sg25
F0.24181094203087738
sg26
I1057548
sg27
F0.053497942386831275
sg28
F0.01741580410675677
ssS'SHERRIFF JOHN R'
p170
(dp171
g3
I3187
sg4
g5
sg6
g5
sg7
I00
sg8
F0.25
sg9
g5
sg10
S'john.sherriff@enron.com'
p172
sg12
I554422
sg13
F0.040423529097597284
sg14
g5
sg15
I2103
sg16
g5
sg17
I92
sg18
I1852186
sg19
g5
sg20
F0.18032786885245902
sg21
F0.06316428585399565
sg22
I28
sg23
I23
sg24
I1293424
sg25
F0.3855872579743442
sg26
I4335388
sg27
F0.25
sg28
F0.05316920346825048
ssS'SHELBY REX'
p173
(dp174
g3
I225
sg4
g5
sg6
I22884
sg7
I01
sg8
F0.358974358974359
sg9
F0.9990483945868666
sg10
S'rex.shelby@enron.com'
p175
sg12
g5
sg13
F0.26583924349881793
sg14
g5
sg15
I91
sg16
g5
sg17
I39
sg18
I1573324
sg19
g5
sg20
F0.01639344262295082
sg21
F0.05021910594018738
sg22
I13
sg23
I14
sg24
I869220
sg25
F0.1902868342184463
sg26
I2003885
sg27
F0.358974358974359
sg28
F0.04701979385810963
ssS'LEMAISTRE CHARLES'
p176
(dp177
g3
g5
sg4
g5
sg6
g5
sg7
I00
sg8
g31
sg9
F0.993102145165208
sg10
g5
sg12
g5
sg13
g31
sg14
g5
sg15
g5
sg16
g5
sg17
g5
sg18
g5
sg19
I112492
sg20
g5
sg21
F0.007825386786978661
sg22
g5
sg23
g5
sg24
g5
sg25
g5
sg26
I87492
sg27
g31
sg28
F0.011738254414182112
ssS'DEFFNER JOSEPH M'
p178
(dp179
g3
I714
sg4
g5
sg6
I41626
sg7
I00
sg8
F0.05405405405405406
sg9
g5
sg10
S'joseph.deffner@enron.com'
p180
sg12
I335349
sg13
F0.7410677036772156
sg14
g5
sg15
I552
sg16
g5
sg17
I74
sg18
I25553
sg19
g5
sg20
F0.06683480453972257
sg21
F0.002657082292882337
sg22
I115
sg23
I4
sg24
I141833
sg25
F0.18513460349069708
sg26
I1208649
sg27
F0.05405405405405406
sg28
F0.0002205973508340371
ssS'KISHKILL JOSEPH G'
p181
(dp182
g3
g5
sg4
g5
sg6
I116335
sg7
I00
sg8
g31
sg9
F0.9856691193197306
sg10
S'joe.kishkill@enron.com'
p183
sg12
g5
sg13
g31
sg14
g5
sg15
g5
sg16
g5
sg17
g5
sg18
I465357
sg19
g5
sg20
g5
sg21
F0.020487403751491405
sg22
g5
sg23
g5
sg24
I1034346
sg25
F0.15643857790149454
sg26
I704896
sg27
g31
sg28
g5
ssS'WHALLEY LAWRENCE G'
p184
(dp185
g3
I6019
sg4
g5
sg6
I57838
sg7
I00
sg8
F0.04316546762589928
sg9
g5
sg10
S'greg.whalley@enron.com'
p186
sg12
I808346
sg13
F0.14218273340096785
sg14
g5
sg15
I3920
sg16
g5
sg17
I556
sg18
I301026
sg19
g5
sg20
F0.3694829760403531
sg21
F0.123271825836653
sg22
I186
sg23
I24
sg24
I2796177
sg25
F0.45903467920319124
sg26
I4677574
sg27
F0.04316546762589928
sg28
F0.09532010073450618
ssS'MCCONNELL MICHAEL S'
p187
(dp188
g3
I3329
sg4
g5
sg6
I81364
sg7
I00
sg8
F0.07075127644055434
sg9
g5
sg10
S'mike.mcconnell@enron.com'
p189
sg12
I554422
sg13
F0.1271546627637205
sg14
g5
sg15
I2189
sg16
g5
sg17
I2742
sg18
I540
sg19
g5
sg20
F0.12988650693568726
sg21
F0.0625998547715137
sg22
I92
sg23
I194
sg24
I1478269
sg25
F0.3282024089356948
sg26
I2101364
sg27
F0.07075127644055434
sg28
F0.04697943109530356
ssS'PIRO JIM'
p190
(dp191
g3
I58
sg4
g5
sg6
g5
sg7
I00
sg8
F0.0625
sg9
g5
sg10
S'jim.piro@enron.com'
p192
sg12
g5
sg13
F0.0
sg14
g5
sg15
I3
sg16
g5
sg17
I16
sg18
g5
sg19
g5
sg20
g5
sg21
F0.00037704803134718575
sg22
I0
sg23
I1
sg24
I47304
sg25
g5
sg26
g5
sg27
F0.0625
sg28
g5
ssS'DELAINEY DAVID W'
p193
(dp194
g3
I3093
sg4
g5
sg6
I86174
sg7
I01
sg8
F0.198435972629521
sg9
g5
sg10
S'david.delainey@enron.com'
p195
sg12
I1294981
sg13
F0.0981798295395918
sg14
g5
sg15
I2097
sg16
g5
sg17
I3069
sg18
I1661
sg19
g5
sg20
F0.3694829760403531
sg21
F0.07305153818319327
sg22
I66
sg23
I609
sg24
I1323148
sg25
F0.3283149423693779
sg26
I4747979
sg27
F0.198435972629521
sg28
F0.06643576797771579
ssS'SULLIVAN-SHAKLOVITZ COLLEEN'
p196
(dp197
g3
g5
sg4
I181993
sg6
g5
sg7
I00
sg8
g31
sg9
g5
sg10
g5
sg12
I554422
sg13
g31
sg14
g5
sg15
g5
sg16
g5
sg17
g5
sg18
I162
sg19
g5
sg20
F0.0037831021437578815
sg21
F0.027170786906942933
sg22
g5
sg23
g5
sg24
g5
sg25
F0.14611521082913734
sg26
I999356
sg27
g31
sg28
F0.039389280529675934
ssS'WROBEL BRUCE'
p198
(dp199
g3
g5
sg4
g5
sg6
g5
sg7
I00
sg8
g31
sg9
g5
sg10
g5
sg12
g5
sg13
g31
sg14
g5
sg15
g5
sg16
g5
sg17
g5
sg18
g5
sg19
g5
sg20
g5
sg21
F0.002247944633880779
sg22
g5
sg23
g5
sg24
g5
sg25
g5
sg26
g5
sg27
g31
sg28
F0.003766230177071091
ssS'LINDHOLM TOD A'
p200
(dp201
g3
g5
sg4
I204075
sg6
I57727
sg7
I00
sg8
g31
sg9
g5
sg10
S'tod.lindholm@enron.com'
p202
sg12
I175000
sg13
g31
sg14
g5
sg15
g5
sg16
g5
sg17
g5
sg18
I2630
sg19
g5
sg20
F0.01639344262295082
sg21
F0.06184455662118021
sg22
g5
sg23
g5
sg24
I514847
sg25
F0.21244511744439273
sg26
I875889
sg27
g31
sg28
F0.07395640489628852
ssS'MEYER JEROME J'
p203
(dp204
g3
g5
sg4
g5
sg6
I2151
sg7
I00
sg8
g31
sg9
F0.9892928692672838
sg10
g5
sg12
g5
sg13
g31
sg14
g5
sg15
g5
sg16
g5
sg17
g5
sg18
g5
sg19
I38346
sg20
g5
sg21
g5
sg22
g5
sg23
g5
sg24
g5
sg25
g5
sg26
I2151
sg27
g31
sg28
g5
ssS'LAY KENNETH L'
p205
(dp206
g3
I4273
sg4
I202911
sg6
I99832
sg7
I01
sg8
F0.4444444444444444
sg9
F0.9146103969313437
sg10
S'kenneth.lay@enron.com'
p207
sg12
I3600000
sg13
F0.1324434474757383
sg14
g5
sg15
I2411
sg16
I81525000
sg17
I36
sg18
I10359729
sg19
g5
sg20
F0.8738965952080706
sg21
F1.0
sg22
I123
sg23
I16
sg24
I14761694
sg25
F0.9649462855414344
sg26
I103559793
sg27
F0.4444444444444444
sg28
F1.0
ssS'BUTTS ROBERT H'
p208
(dp209
g3
g5
sg4
g5
sg6
I9410
sg7
I00
sg8
g31
sg9
F0.9788309182135964
sg10
S'bob.butts@enron.com'
p210
sg12
I175000
sg13
g31
sg14
g5
sg15
g5
sg16
g5
sg17
g5
sg18
I150656
sg19
g5
sg20
F0.08575031525851198
sg21
F0.007921981659810014
sg22
g5
sg23
g5
sg24
I417619
sg25
F0.23500491996172063
sg26
I1271582
sg27
g31
sg28
g5
ssS'OLSON CINDY K'
p211
(dp212
g3
I1184
sg4
I77716
sg6
I63791
sg7
I00
sg8
F0.28846153846153844
sg9
g5
sg10
S'cindy.olson@enron.com'
p213
sg12
I100000
sg13
F0.07772067280046004
sg14
g5
sg15
I856
sg16
g5
sg17
I52
sg18
I972
sg19
g5
sg20
F0.08575031525851198
sg21
F0.05252440441651073
sg22
I20
sg23
I15
sg24
I969729
sg25
F0.295828790733727
sg26
I1321557
sg27
F0.28846153846153844
sg28
F0.04738783469241201
ssS'MCDONALD REBECCA'
p214
(dp215
g3
I894
sg4
g5
sg6
g5
sg7
I00
sg8
F0.07692307692307693
sg9
g5
sg10
S'rebecca.mcdonald@enron.com'
p216
sg12
g5
sg13
F0.2779166071683564
sg14
g5
sg15
I720
sg16
g5
sg17
I13
sg18
g5
sg19
g5
sg20
g5
sg21
F0.03387377020322208
sg22
I54
sg23
I1
sg24
I934065
sg25
g5
sg26
g5
sg27
F0.07692307692307693
sg28
F0.021768459215015322
ssS'CUMBERLAND MICHAEL S'
p217
(dp218
g3
g5
sg4
g5
sg6
I22344
sg7
I00
sg8
g31
sg9
g5
sg10
g5
sg12
I275000
sg13
g31
sg14
g5
sg15
g5
sg16
g5
sg17
g5
sg18
I713
sg19
g5
sg20
F0.03215636822194199
sg21
F0.0036499048109584755
sg22
g5
sg23
g5
sg24
I207940
sg25
F0.16602912725370708
sg26
I807956
sg27
g31
sg28
g5
ssS'GAHN ROBERT S'
p219
(dp220
g3
g5
sg4
I73122
sg6
I50080
sg7
I00
sg8
g31
sg9
F0.9999403462713423
sg10
g5
sg12
g5
sg13
g31
sg14
g5
sg15
g5
sg16
g5
sg17
g5
sg18
I76547
sg19
g5
sg20
F0.055469104665825976
sg21
F0.005904674857705423
sg22
g5
sg23
g5
sg24
I235370
sg25
F0.17242912869413501
sg26
I900585
sg27
g31
sg28
F0.002138527506422004
ssS'MCCLELLAN GEORGE'
p221
(dp222
g3
I1744
sg4
g5
sg6
I228763
sg7
I00
sg8
F0.0
sg9
F0.9645596912619846
sg10
S'george.mcclellan@enron.com'
p223
sg12
g5
sg13
F0.13718768299824322
sg14
g5
sg15
I1469
sg16
g5
sg17
I49
sg18
I51587
sg19
g5
sg20
F0.10466582597730138
sg21
F0.01872532664184797
sg22
I52
sg23
I0
sg24
I441096
sg25
F0.23671272735129606
sg26
I1318763
sg27
F0.0
sg28
F0.01447240932873726
ssS'HERMANN ROBERT J'
p224
(dp225
g3
g5
sg4
g5
sg6
I48357
sg7
I00
sg8
g31
sg9
F0.9203188877119883
sg10
S'robert.hermann@enron.com'
p226
sg12
I150000
sg13
g31
sg14
g5
sg15
g5
sg16
g5
sg17
g5
sg18
I416441
sg19
g5
sg20
F0.07944514501891552
sg21
F0.013026025401130533
sg22
g5
sg23
g5
sg24
I480632
sg25
F0.23603752674919717
sg26
I1297461
sg27
g31
sg28
F0.005174849828535431
ssS'SCRIMSHAW MATTHEW'
p227
(dp228
g3
g5
sg4
g5
sg6
g5
sg7
I00
sg8
g31
sg9
g5
sg10
S'matthew.scrimshaw@enron.com'
p229
sg12
g5
sg13
g31
sg14
g5
sg15
g5
sg16
g5
sg17
g5
sg18
g5
sg19
g5
sg20
g5
sg21
F0.01488875188259149
sg22
g5
sg23
g5
sg24
g5
sg25
g5
sg26
g5
sg27
g31
sg28
F0.021834157911184506
ssS'GATHMANN WILLIAM D'
p230
(dp231
g3
g5
sg4
g5
sg6
g5
sg7
I00
sg8
g31
sg9
g5
sg10
g5
sg12
g5
sg13
g31
sg14
I-72419
sg15
g5
sg16
g5
sg17
g5
sg18
g5
sg19
g5
sg20
g5
sg21
F0.039048737115250455
sg22
g5
sg23
g5
sg24
I264013
sg25
g5
sg26
g5
sg27
g31
sg28
F0.05078727627096763
ssS'HAEDICKE MARK E'
p232
(dp233
g3
I4009
sg4
I2157527
sg6
I76169
sg7
I00
sg8
F0.03142709943328181
sg9
F0.7335130937080159
sg10
S'mark.haedicke@enron.com'
p234
sg12
I983346
sg13
F0.20658306045440314
sg14
I-329825
sg15
I1847
sg16
g5
sg17
I1941
sg18
I52382
sg19
g5
sg20
F0.13619167717528374
sg21
F0.015775790688425405
sg22
I180
sg23
I61
sg24
I524169
sg25
F0.33638313943072484
sg26
I3859065
sg27
F0.03142709943328181
sg28
F0.0174423922759068
ssS'BOWEN JR RAYMOND M'
p235
(dp236
g3
I1858
sg4
g5
sg6
I65907
sg7
I01
sg8
F0.5555555555555556
sg9
F1.0
sg10
S'raymond.bowen@enron.com'
p237
sg12
I974293
sg13
F0.3466894166685752
sg14
g5
sg15
I1593
sg16
g5
sg17
I27
sg18
I1621
sg19
g5
sg20
F0.1614123581336696
sg21
F0.004548720000782376
sg22
I140
sg23
I15
sg24
I252055
sg25
F0.25038598967753317
sg26
I2669589
sg27
F0.5555555555555556
sg28
g5
ssS'GILLIS JOHN'
p238
(dp239
g3
g5
sg4
g5
sg6
g5
sg7
I00
sg8
g31
sg9
g5
sg10
g5
sg12
g5
sg13
g31
sg14
g5
sg15
g5
sg16
g5
sg17
g5
sg18
g5
sg19
g5
sg20
g5
sg21
F0.0011581401300047596
sg22
g5
sg23
g5
sg24
I75838
sg25
g5
sg26
g5
sg27
g31
sg28
F0.0
ssS'FITZGERALD JAY L'
p240
(dp241
g3
I936
sg4
g5
sg6
I23870
sg7
I00
sg8
F0.5
sg9
g5
sg10
S'jay.fitzgerald@enron.com'
p242
sg12
I556416
sg13
F0.004915666484815421
sg14
g5
sg15
I723
sg16
g5
sg17
I16
sg18
I285414
sg19
g5
sg20
F0.03530895334174023
sg21
F0.032444915862015006
sg22
I1
sg23
I8
sg24
I956775
sg25
F0.1788651408333416
sg26
I1414857
sg27
F0.5
sg28
F0.019064794785783372
ssS'MORAN MICHAEL P'
p243
(dp244
g3
I672
sg4
g5
sg6
g5
sg7
I00
sg8
F0.0
sg9
g5
sg10
S'michael.moran@enron.com'
p245
sg12
g5
sg13
F0.0
sg14
g5
sg15
I127
sg16
g5
sg17
I19
sg18
g5
sg19
g5
sg20
g5
sg21
F0.0039188668266190285
sg22
I0
sg23
I0
sg24
I161602
sg25
g5
sg26
g5
sg27
F0.0
sg28
F0.0014483999790206824
ssS'REDMOND BRIAN L'
p246
(dp247
g3
I1671
sg4
g5
sg6
I14689
sg7
I00
sg8
F0.22171945701357465
sg9
g5
sg10
S'brian.redmond@enron.com'
p248
sg12
g5
sg13
F0.5617097673707934
sg14
g5
sg15
I1063
sg16
g5
sg17
I221
sg18
g5
sg19
g5
sg20
g5
sg21
F0.1601736140540752
sg22
I204
sg23
I49
sg24
I381285
sg25
F0.08675247416007295
sg26
I111529
sg27
F0.22171945701357465
sg28
F0.21839096962102192
ssS'BAZELIDES PHILIP J'
p249
(dp250
g3
g5
sg4
I684694
sg6
g5
sg7
I00
sg8
g31
sg9
g5
sg10
g5
sg12
I93750
sg13
g31
sg14
g5
sg15
g5
sg16
g5
sg17
g5
sg18
I874
sg19
g5
sg20
g5
sg21
F0.032004931411731725
sg22
g5
sg23
g5
sg24
g5
sg25
F0.07232838876430188
sg26
I860136
sg27
g31
sg28
F0.046298884627760245
ssS'BELDEN TIMOTHY N'
p251
(dp252
g3
I7991
sg4
I2144013
sg6
I17355
sg7
I01
sg8
F0.2231404958677686
sg9
F0.33393301028984007
sg10
S'tim.belden@enron.com'
p253
sg12
g5
sg13
F0.1312780069067062
sg14
g5
sg15
I5521
sg16
g5
sg17
I484
sg18
I210698
sg19
g5
sg20
F0.6532155107187894
sg21
F0.022043170023275677
sg22
I228
sg23
I108
sg24
I157569
sg25
F0.19222691061514377
sg26
I5501630
sg27
F0.2231404958677686
sg28
F0.027471519571528012
ssS'DURAN WILLIAM D'
p254
(dp255
g3
I904
sg4
g5
sg6
I25785
sg7
I00
sg8
F0.25
sg9
g5
sg10
S'w.duran@enron.com'
p256
sg12
I1105218
sg13
F0.5395052720768216
sg14
g5
sg15
I599
sg16
g5
sg17
I12
sg18
I1568
sg19
g5
sg20
F0.08575031525851198
sg21
F0.03284576115374334
sg22
I106
sg23
I3
sg24
I189041
sg25
F0.18924972609362242
sg26
I2093263
sg27
F0.25
sg28
F0.041995503541628586
ssS'THORN TERENCE H'
p257
(dp258
g3
I266
sg4
I16586
sg6
I46145
sg7
I00
sg8
F0.0
sg9
g5
sg10
S'terence.thorn@enron.com'
p259
sg12
I200000
sg13
F0.0
sg14
g5
sg15
I73
sg16
g5
sg17
I41
sg18
I426629
sg19
g5
sg20
g5
sg21
F0.09757280168732356
sg22
I0
sg23
I0
sg24
I365320
sg25
F0.1995136755129949
sg26
I911453
sg27
F0.0
sg28
F0.12937846791048238
ssS'FASTOW ANDREW S'
p260
(dp261
g3
g5
sg4
g5
sg6
I55921
sg7
I01
sg8
g31
sg9
F0.604623649192691
sg10
S'andrew.fastow@enron.com'
p262
sg12
I1736055
sg13
g31
sg14
g5
sg15
g5
sg16
g5
sg17
g5
sg18
I277464
sg19
g5
sg20
F0.15510718789407313
sg21
F0.0359732672008554
sg22
g5
sg23
g5
sg24
I1794412
sg25
F0.3963166456754302
sg26
I2424083
sg27
g31
sg28
g5
ssS'FOY JOE'
p263
(dp264
g3
I57
sg4
I181755
sg6
g5
sg7
I00
sg8
F0.0
sg9
g5
sg10
S'tracy.foy@enron.com'
p265
sg12
g5
sg13
F0.0
sg14
g5
sg15
I2
sg16
g5
sg17
I13
sg18
g5
sg19
g5
sg20
g5
sg21
F0.0064105092613721566
sg22
I0
sg23
I0
sg24
g5
sg25
g5
sg26
I181755
sg27
F0.0
sg28
F0.009715922740080611
ssS'CALGER CHRISTOPHER F'
p266
(dp267
g3
I2598
sg4
g5
sg6
I35818
sg7
I01
sg8
F0.1736111111111111
sg9
F0.9253138171450525
sg10
S'christopher.calger@enron.com'
p268
sg12
I375304
sg13
F0.35242944654644326
sg14
g5
sg15
I2188
sg16
g5
sg17
I144
sg18
I486
sg19
g5
sg20
F0.14880201765447668
sg21
F0.0019809793061631646
sg22
I199
sg23
I25
sg24
I126027
sg25
F0.21580491564043677
sg26
I1639297
sg27
F0.1736111111111111
sg28
g5
ssS'RICE KENNETH D'
p269
(dp270
g3
I905
sg4
g5
sg6
I46950
sg7
I01
sg8
F0.2222222222222222
sg9
F0.0
sg10
S'ken.rice@enron.com'
p271
sg12
I1617011
sg13
F0.2135300340895733
sg14
g5
sg15
I864
sg16
g5
sg17
I18
sg18
I174839
sg19
g5
sg20
F0.21185372005044137
sg21
F0.45870321637903494
sg22
I42
sg23
I4
sg24
I2748364
sg25
F0.37825547970301976
sg26
I505050
sg27
F0.2222222222222222
sg28
F0.5761557823254257
ssS'KAMINSKI WINCENTY J'
p272
(dp273
g3
I4607
sg4
g5
sg6
I83585
sg7
I00
sg8
F0.011901447661469933
sg9
g5
sg10
S'vince.kaminski@enron.com'
p274
sg12
I323466
sg13
F0.040947171048681695
sg14
g5
sg15
I583
sg16
g5
sg17
I14368
sg18
I4669
sg19
g5
sg20
F0.0416141235813367
sg21
F0.019299394799809622
sg22
I41
sg23
I171
sg24
I126027
sg25
F0.24723505353440506
sg26
I1086821
sg27
F0.011901447661469933
sg28
F0.024468308693361557
ssS'LOCKHART EUGENE E'
p275
(dp276
g3
g5
sg4
g5
sg6
g5
sg7
I00
sg8
g31
sg9
g5
sg10
g5
sg12
g5
sg13
g31
sg14
g5
sg15
g5
sg16
g5
sg17
g5
sg18
g5
sg19
g5
sg20
g5
sg21
g5
sg22
g5
sg23
g5
sg24
g5
sg25
g5
sg26
g5
sg27
g31
sg28
g5
ssS'COX DAVID'
p277
(dp278
g3
I102
sg4
g5
sg6
I27861
sg7
I00
sg8
F0.12121212121212122
sg9
F0.9884639964059342
sg10
S'chip.cox@enron.com'
p279
sg12
g5
sg13
F0.0
sg14
g5
sg15
I71
sg16
g5
sg17
I33
sg18
I494
sg19
g5
sg20
F0.09205548549810845
sg21
F0.009511467508589833
sg22
I0
sg23
I4
sg24
I378082
sg25
F0.282513834860337
sg26
I1101393
sg27
F0.12121212121212122
sg28
F0.003137811664378327
ssS'OVERDYKE JR JERE C'
p280
(dp281
g3
g5
sg4
g5
sg6
I18834
sg7
I00
sg8
g31
sg9
g5
sg10
S'jere.overdyke@enron.com'
p282
sg12
I135836
sg13
g31
sg14
g5
sg15
g5
sg16
g5
sg17
g5
sg18
I176
sg19
g5
sg20
g5
sg21
F0.14830085930929265
sg22
g5
sg23
g5
sg24
I2041016
sg25
F0.08504286623555858
sg26
I249787
sg27
g31
sg28
F0.15308655299413798
ssS'PEREIRA PAULO V. FERRAZ'
p283
(dp284
g3
g5
sg4
g5
sg6
I27942
sg7
I00
sg8
g31
sg9
F0.9713385240640001
sg10
g5
sg12
g5
sg13
g31
sg14
g5
sg15
g5
sg16
g5
sg17
g5
sg18
g5
sg19
I101250
sg20
g5
sg21
g5
sg22
g5
sg23
g5
sg24
g5
sg25
g5
sg26
I27942
sg27
g31
sg28
g5
ssS'STABLER FRANK'
p285
(dp286
g3
g5
sg4
g5
sg6
I16514
sg7
I00
sg8
g31
sg9
g5
sg10
S'frank.stabler@enron.com'
p287
sg12
g5
sg13
g31
sg14
g5
sg15
g5
sg16
g5
sg17
g5
sg18
I356071
sg19
g5
sg20
F0.05422446406052964
sg21
F0.00983951518786796
sg22
g5
sg23
g5
sg24
I511734
sg25
F0.2151864318889142
sg26
I1112087
sg27
g31
sg28
g5
ssS'SKILLING JEFFREY K'
p288
(dp289
g3
I3627
sg4
g5
sg6
I29336
sg7
I01
sg8
F0.2777777777777778
sg9
g5
sg10
S'jeff.skilling@enron.com'
p290
sg12
I1920000
sg13
F0.11163320017129214
sg14
g5
sg15
I2042
sg16
g5
sg17
I108
sg18
I22122
sg19
g5
sg20
F0.6973518284993695
sg21
F0.5310553025511967
sg22
I88
sg23
I30
sg24
I6843672
sg25
F1.0
sg26
I8682716
sg27
F0.2777777777777778
sg28
F0.5603084472244209
ssS'BLAKE JR. NORMAN P'
p291
(dp292
g3
g5
sg4
g5
sg6
I1279
sg7
I00
sg8
g31
sg9
F0.9677610128917702
sg10
g5
sg12
g5
sg13
g31
sg14
g5
sg15
g5
sg16
g5
sg17
g5
sg18
g5
sg19
I113784
sg20
g5
sg21
g5
sg22
g5
sg23
g5
sg24
g5
sg25
g5
sg26
I1279
sg27
g31
sg28
g5
ssS'SHERRICK JEFFREY B'
p293
(dp294
g3
I613
sg4
g5
sg6
g5
sg7
I00
sg8
F0.72
sg9
g5
sg10
S'jeffrey.sherrick@enron.com'
p295
sg12
g5
sg13
F0.29272673631599044
sg14
g5
sg15
I583
sg16
g5
sg17
I25
sg18
g5
sg19
g5
sg20
g5
sg21
F0.0367486341024521
sg22
I39
sg23
I18
sg24
I405999
sg25
g5
sg26
g5
sg27
F0.72
sg28
F0.04125581077447551
ssS'PRENTICE JAMES'
p296
(dp297
g3
g5
sg4
I564348
sg6
g5
sg7
I00
sg8
g31
sg9
g5
sg10
S'james.prentice@enron.com'
p298
sg12
g5
sg13
g31
sg14
g5
sg15
g5
sg16
g5
sg17
g5
sg18
g5
sg19
g5
sg20
g5
sg21
F0.021724005567906948
sg22
g5
sg23
g5
sg24
I208809
sg25
g5
sg26
I564348
sg27
g31
sg28
F0.025523128052379333
ssS'GRAY RODNEY'
p299
(dp300
g3
g5
sg4
I93585
sg6
g5
sg7
I00
sg8
g31
sg9
g5
sg10
g5
sg12
I365625
sg13
g31
sg14
g5
sg15
g5
sg16
g5
sg17
g5
sg18
I680833
sg19
g5
sg20
g5
sg21
g5
sg22
g5
sg23
g5
sg24
g5
sg25
F0.005525841727577263
sg26
I1146658
sg27
g31
sg28
g5
ssS'PICKERING MARK R'
p301
(dp302
g3
I898
sg4
g5
sg6
I31653
sg7
I00
sg8
F0.0
sg9
g5
sg10
S'mark.pickering@enron.com'
p303
sg12
g5
sg13
F0.03586575368431029
sg14
g5
sg15
I728
sg16
I400000
sg17
I67
sg18
g5
sg19
g5
sg20
F0.029003783102143757
sg21
F0.0
sg22
I7
sg23
I0
sg24
g5
sg25
F0.589279074813127
sg26
I1386690
sg27
F0.0
sg28
F0.0005531678784280573
ssS'THE TRAVEL AGENCY IN THE PARK'
p304
(dp305
g3
g5
sg4
g5
sg6
g5
sg7
I00
sg8
g31
sg9
g5
sg10
g5
sg12
g5
sg13
g31
sg14
g5
sg15
g5
sg16
g5
sg17
g5
sg18
I362096
sg19
g5
sg20
g5
sg21
g5
sg22
g5
sg23
g5
sg24
g5
sg25
g5
sg26
I362096
sg27
g31
sg28
g5
ssS'NOLES JAMES L'
p306
(dp307
g3
g5
sg4
I774401
sg6
g5
sg7
I00
sg8
g31
sg9
g5
sg10
g5
sg12
g5
sg13
g31
sg14
I-94556
sg15
g5
sg16
g5
sg17
g5
sg18
g5
sg19
g5
sg20
g5
sg21
F0.006925389883882409
sg22
g5
sg23
g5
sg24
I463261
sg25
g5
sg26
I774401
sg27
g31
sg28
g5
ssS'KEAN STEVEN J'
p308
(dp309
g3
I12754
sg4
g5
sg6
I41953
sg7
I00
sg8
F0.05725699067909454
sg9
g5
sg10
S'steven.kean@enron.com'
p310
sg12
I300000
sg13
F0.05050564028306514
sg14
g5
sg15
I3639
sg16
g5
sg17
I6759
sg18
I1231
sg19
g5
sg20
F0.11727616645649433
sg21
F0.12478981803245555
sg22
I140
sg23
I387
sg24
I4131594
sg25
F0.3635829204856763
sg26
I1747522
sg27
F0.05725699067909454
sg28
F0.05860012095432831
ssS'FOWLER PEGGY'
p311
(dp312
g3
I517
sg4
g5
sg6
g5
sg7
I00
sg8
F0.0
sg9
g5
sg10
S'kulvinder.fowler@enron.com'
p313
sg12
g5
sg13
F0.0
sg14
g5
sg15
I10
sg16
g5
sg17
I36
sg18
g5
sg19
g5
sg20
g5
sg21
F0.037813805996909616
sg22
I0
sg23
I0
sg24
I560170
sg25
g5
sg26
g5
sg27
F0.0
sg28
F0.038288565272979684
ssS'WASAFF GEORGE'
p314
(dp315
g3
I400
sg4
I831299
sg6
g5
sg7
I00
sg8
F0.23333333333333334
sg9
F0.833742489410036
sg10
S'george.wasaff@enron.com'
p316
sg12
I200000
sg13
F0.2530585106382979
sg14
g5
sg15
I337
sg16
g5
sg17
I30
sg18
I1425
sg19
g5
sg20
F0.03215636822194199
sg21
F0.041311656908703275
sg22
I22
sg23
I7
sg24
I388167
sg25
F0.23363651340813354
sg26
I1034395
sg27
F0.23333333333333334
sg28
F0.04829719084781051
ssS'WHITE JR THOMAS E'
p317
(dp318
g3
g5
sg4
g5
sg6
I81353
sg7
I00
sg8
g31
sg9
g5
sg10
S'thomas.white@enron.com'
p319
sg12
g5
sg13
g31
sg14
g5
sg15
g5
sg16
g5
sg17
g5
sg18
I1085463
sg19
g5
sg20
F0.04791929382093316
sg21
F0.3079651753173511
sg22
g5
sg23
g5
sg24
I13847074
sg25
F0.2854442054734462
sg26
I1934359
sg27
g31
sg28
F0.03748687227349319
ssS'CHRISTODOULOU DIOMEDES'
p320
(dp321
g3
g5
sg4
g5
sg6
g5
sg7
I00
sg8
g31
sg9
g5
sg10
S'diomedes.christodoulou@enron.com'
p322
sg12
g5
sg13
g31
sg14
g5
sg15
g5
sg16
g5
sg17
g5
sg18
g5
sg19
g5
sg20
g5
sg21
F0.12324631712946361
sg22
g5
sg23
g5
sg24
I950730
sg25
g5
sg26
g5
sg27
g31
sg28
F0.1490263095030048
ssS'ALLEN PHILLIP K'
p323
(dp324
g3
I2902
sg4
I2869717
sg6
I13868
sg7
I00
sg8
F0.029612756264236904
sg9
F0.12082905553305459
sg10
S'phillip.allen@enron.com'
p325
sg12
I304805
sg13
F0.07451757408683667
sg14
I-126027
sg15
I1407
sg16
g5
sg17
I2195
sg18
I152
sg19
g5
sg20
F0.5176544766708702
sg21
F0.03465156165446378
sg22
I47
sg23
I65
sg24
I126027
sg25
F0.18138408921290516
sg26
I4484442
sg27
F0.029612756264236904
sg28
F0.05008180157473601
ssS'SHARP VICTORIA T'
p326
(dp327
g3
I3136
sg4
I187469
sg6
I116337
sg7
I00
sg8
F0.04411764705882353
sg9
g5
sg10
S'vicki.sharp@enron.com'
p328
sg12
I422158
sg13
F0.0352122231871472
sg14
g5
sg15
I2477
sg16
g5
sg17
I136
sg18
I2401
sg19
g5
sg20
F0.06683480453972257
sg21
F0.009480967081543105
sg22
I24
sg23
I6
sg24
I213063
sg25
F0.2229683438949712
sg26
I1576511
sg27
F0.04411764705882353
sg28
F0.007899860509669867
ssS'JAEDICKE ROBERT'
p329
(dp330
g3
g5
sg4
g5
sg6
g5
sg7
I00
sg8
g31
sg9
F0.993102145165208
sg10
g5
sg12
g5
sg13
g31
sg14
I-44093
sg15
g5
sg16
g5
sg17
g5
sg18
g5
sg19
I108750
sg20
g5
sg21
F0.00820989183656172
sg22
g5
sg23
g5
sg24
I44093
sg25
g5
sg26
I83750
sg27
g31
sg28
F0.012287840315824349
ssS'WINOKUR JR. HERBERT S'
p331
(dp332
g3
g5
sg4
g5
sg6
I1413
sg7
I00
sg8
g31
sg9
F0.993102145165208
sg10
g5
sg12
g5
sg13
g31
sg14
g5
sg15
g5
sg16
g5
sg17
g5
sg18
g5
sg19
I108579
sg20
g5
sg21
g5
sg22
g5
sg23
g5
sg24
g5
sg25
g5
sg26
I84992
sg27
g31
sg28
g5
ssS'BROWN MICHAEL'
p333
(dp334
g3
I1486
sg4
g5
sg6
I49288
sg7
I00
sg8
F0.024390243902439025
sg9
g5
sg10
S'michael.brown@enron.com'
p335
sg12
g5
sg13
F0.04025156782451819
sg14
g5
sg15
I761
sg16
g5
sg17
I41
sg18
g5
sg19
g5
sg20
g5
sg21
g5
sg22
I13
sg23
I1
sg24
g5
sg25
g5
sg26
I49288
sg27
F0.024390243902439025
sg28
g5
ssS'BADUM JAMES P'
p336
(dp337
g3
g5
sg4
I178980
sg6
I3486
sg7
I00
sg8
g31
sg9
g5
sg10
g5
sg12
g5
sg13
g31
sg14
g5
sg15
g5
sg16
g5
sg17
g5
sg18
g5
sg19
g5
sg20
g5
sg21
F0.004666117102080467
sg22
g5
sg23
g5
sg24
g5
sg25
g5
sg26
I182466
sg27
g31
sg28
F0.007222604801287508
ssS'HUGHES JAMES A'
p338
(dp339
g3
I719
sg4
g5
sg6
g5
sg7
I00
sg8
F0.14705882352941177
sg9
g5
sg10
S'james.hughes@enron.com'
p340
sg12
g5
sg13
F0.22397389992010178
sg14
g5
sg15
I589
sg16
g5
sg17
I34
sg18
g5
sg19
g5
sg20
g5
sg21
F0.022199828529329307
sg22
I35
sg23
I5
sg24
I363428
sg25
g5
sg26
g5
sg27
F0.14705882352941177
sg28
F0.02170045989960971
ssS'REYNOLDS LAWRENCE'
p341
(dp342
g3
g5
sg4
I51365
sg6
I8409
sg7
I00
sg8
g31
sg9
F0.9431528508345671
sg10
g5
sg12
I156250
sg13
g31
sg14
I-140264
sg15
g5
sg16
g5
sg17
g5
sg18
I202052
sg19
g5
sg20
F0.0037831021437578815
sg21
F0.08543161466041635
sg22
g5
sg23
g5
sg24
I201483
sg25
F0.06835010681673526
sg26
I394475
sg27
g31
sg28
F0.12088062112991797
ssS'DIMICHELE RICHARD G'
p343
(dp344
g3
g5
sg4
g5
sg6
I35812
sg7
I00
sg8
g31
sg9
g5
sg10
S'richard.dimichele@enron.com'
p345
sg12
I694862
sg13
g31
sg14
g5
sg15
g5
sg16
g5
sg17
g5
sg18
I374689
sg19
g5
sg20
F0.11727616645649433
sg21
F0.1688828001225722
sg22
g5
sg23
g5
sg24
I126027
sg25
F0.23615006018288034
sg26
I2368151
sg27
g31
sg28
F0.23827286281864704
ssS'CARTER REBECCA C'
p346
(dp347
g3
I312
sg4
g5
sg6
g5
sg7
I00
sg8
F0.4666666666666667
sg9
F0.9546292006999751
sg10
S'rebecca.carter@enron.com'
p348
sg12
I75000
sg13
F0.4276629841789416
sg14
I-307301
sg15
I196
sg16
g5
sg17
I15
sg18
I540
sg19
g5
sg20
F0.029003783102143757
sg21
g5
sg22
I29
sg23
I7
sg24
I307301
sg25
F0.23526869833027392
sg26
I477557
sg27
F0.4666666666666667
sg28
g5
ssS'BUCHANAN HAROLD G'
p349
(dp350
g3
I1088
sg4
g5
sg6
I600
sg7
I00
sg8
F0.0
sg9
g5
sg10
S'john.buchanan@enron.com'
p351
sg12
I304805
sg13
F0.0
sg14
g5
sg15
I23
sg16
g5
sg17
I125
sg18
I1215
sg19
g5
sg20
F0.05422446406052964
sg21
F0.02008315594051337
sg22
I0
sg23
I0
sg24
I189041
sg25
F0.22285220939141018
sg26
I1054637
sg27
F0.0
sg28
F0.02375348591137182
ssS'YEAP SOON'
p352
(dp353
g3
g5
sg4
g5
sg6
I55097
sg7
I00
sg8
g31
sg9
g5
sg10
g5
sg12
g5
sg13
g31
sg14
g5
sg15
g5
sg16
g5
sg17
g5
sg18
g5
sg19
g5
sg20
g5
sg21
F0.003340581174737089
sg22
g5
sg23
g5
sg24
g5
sg25
g5
sg26
I55097
sg27
g31
sg28
F0.005327972055688615
ssS'MURRAY JULIA H'
p354
(dp355
g3
I2192
sg4
g5
sg6
I57580
sg7
I00
sg8
F0.044444444444444446
sg9
g5
sg10
S'julia.murray@enron.com'
p356
sg12
I125000
sg13
F0.023089280167727908
sg14
g5
sg15
I395
sg16
g5
sg17
I45
sg18
I330
sg19
g5
sg20
F0.0416141235813367
sg21
F0.011586148527503766
sg22
I11
sg23
I2
sg24
I196983
sg25
F0.205987498885919
sg26
I812194
sg27
F0.044444444444444446
sg28
F0.011377144559351477
ssS'GARLAND C KEVIN'
p357
(dp358
g3
I209
sg4
g5
sg6
I48405
sg7
I00
sg8
F0.6136363636363636
sg9
g5
sg10
S'kevin.garland@enron.com'
p359
sg12
I375304
sg13
F0.22014659472666193
sg14
g5
sg15
I178
sg16
g5
sg17
I44
sg18
I60814
sg19
g5
sg20
F0.09836065573770492
sg21
F0.01767180888517985
sg22
I10
sg23
I27
sg24
I259907
sg25
F0.20838401088963532
sg26
I1566469
sg27
F0.6136363636363636
sg28
F0.018243124257231246
ssS'DODSON KEITH'
p360
(dp361
g3
I176
sg4
g5
sg6
I28164
sg7
I00
sg8
F0.21428571428571427
sg9
g5
sg10
S'keith.dodson@enron.com'
p362
sg12
g5
sg13
F0.261424081237911
sg14
g5
sg15
I114
sg16
g5
sg17
I14
sg18
I774
sg19
g5
sg20
F0.0
sg21
g5
sg22
I10
sg23
I3
sg24
g5
sg25
F0.19853238397127787
sg26
I319941
sg27
F0.21428571428571427
sg28
g5
ssS'YEAGER F SCOTT'
p363
(dp364
g3
g5
sg4
g5
sg6
I53947
sg7
I01
sg8
g31
sg9
g5
sg10
S'scott.yeager@enron.com'
p365
sg12
g5
sg13
g31
sg14
g5
sg15
g5
sg16
g5
sg17
g5
sg18
I147950
sg19
g5
sg20
g5
sg21
F0.2415576773873868
sg22
g5
sg23
g5
sg24
I3576206
sg25
F0.1421756403827577
sg26
I360300
sg27
g31
sg28
F0.2416741973117643
ssS'HIRKO JOSEPH'
p366
(dp367
g3
g5
sg4
I10259
sg6
I77978
sg7
I01
sg8
g31
sg9
g5
sg10
S'joe.hirko@enron.com'
p368
sg12
g5
sg13
g31
sg14
g5
sg15
g5
sg16
g5
sg17
g5
sg18
I2856
sg19
g5
sg20
g5
sg21
F0.6262523308275579
sg22
g5
sg23
g5
sg24
g5
sg25
g5
sg26
I91093
sg27
g31
sg28
F0.895676527809929
ssS'DIETRICH JANET R'
p369
(dp370
g3
I2572
sg4
g5
sg6
I3475
sg7
I00
sg8
F0.2222222222222222
sg9
g5
sg10
S'janet.dietrich@enron.com'
p371
sg12
I556416
sg13
F0.5456160451341783
sg14
g5
sg15
I1902
sg16
g5
sg17
I63
sg18
I473
sg19
g5
sg20
F0.06683480453972257
sg21
F0.037413225571949225
sg22
I305
sg23
I14
sg24
I315068
sg25
F0.22472746653030615
sg26
I1410464
sg27
F0.2222222222222222
sg28
F0.044853804529663005
ssS'DERRICK JR. JAMES V'
p372
(dp373
g3
I2181
sg4
g5
sg6
I51124
sg7
I00
sg8
F0.022002200220022004
sg9
F0.6337526505236256
sg10
S'james.derrick@enron.com'
p374
sg12
I484000
sg13
F0.1350151696957281
sg14
I-1787380
sg15
I1401
sg16
g5
sg17
I909
sg18
I7482
sg19
g5
sg20
F0.09205548549810845
sg21
F0.17935789368166438
sg22
I64
sg23
I20
sg24
I1787380
sg25
F0.4428397676949822
sg26
I550981
sg27
F0.022002200220022004
sg28
F0.2569153920483785
ssS'FREVERT MARK A'
p375
(dp376
g3
I3275
sg4
I6426990
sg6
I86987
sg7
I00
sg8
F0.2857142857142857
sg9
F0.03921019604955313
sg10
S'mark.frevert@enron.com'
p377
sg12
I1617011
sg13
F0.3399870066590872
sg14
g5
sg15
I2979
sg16
I2000000
sg17
I21
sg18
I7427621
sg19
g5
sg20
F0.24337957124842372
sg21
F0.2973310190769271
sg22
I242
sg23
I6
sg24
I4188667
sg25
F0.9546931393316954
sg26
I17252530
sg27
F0.2857142857142857
sg28
F0.3035569524553155
ssS'PAI LOU L'
p378
(dp379
g3
g5
sg4
g5
sg6
I32047
sg7
I00
sg8
g31
sg9
g5
sg10
S'lou.pai@enron.com'
p380
sg12
g5
sg13
g31
sg14
g5
sg15
g5
sg16
g5
sg17
g5
sg18
I1829457
sg19
g5
sg20
F0.11727616645649433
sg21
F0.48468850038140815
sg22
g5
sg23
g5
sg24
I8453763
sg25
F0.2353317170531365
sg26
I3123383
sg27
g31
sg28
F0.44714614153683285
ssS'BAY FRANKLIN R'
p381
(dp382
g3
g5
sg4
I260455
sg6
I129142
sg7
I00
sg8
g31
sg9
F0.9426844691660152
sg10
S'frank.bay@enron.com'
p383
sg12
g5
sg13
g31
sg14
I-82782
sg15
g5
sg16
g5
sg17
g5
sg18
I69
sg19
g5
sg20
F0.0416141235813367
sg21
F0.0006971293332203235
sg22
g5
sg23
g5
sg24
I145796
sg25
F0.2153385770912538
sg26
I827696
sg27
g31
sg28
g5
ssS'HAYSLETT RODERICK J'
p384
(dp385
g3
I2649
sg4
g5
sg6
g5
sg7
I00
sg8
F0.03581526861451461
sg9
g5
sg10
S'rod.hayslett@enron.com'
p386
sg12
g5
sg13
F0.06079170783033341
sg14
g5
sg15
I571
sg16
g5
sg17
I1061
sg18
g5
sg19
g5
sg20
g5
sg21
F0.006476298091655311
sg22
I35
sg23
I38
sg24
I346663
sg25
g5
sg26
g5
sg27
F0.03581526861451461
sg28
g5
ssS'FUGH JOHN L'
p387
(dp388
g3
g5
sg4
I50591
sg6
g5
sg7
I00
sg8
g31
sg9
g5
sg10
g5
sg12
g5
sg13
g31
sg14
g5
sg15
g5
sg16
g5
sg17
g5
sg18
g5
sg19
g5
sg20
g5
sg21
F0.0030068490471316153
sg22
g5
sg23
g5
sg24
g5
sg25
g5
sg26
I50591
sg27
g31
sg28
F0.00485095758616234
ssS'FALLON JAMES B'
p389
(dp390
g3
I1755
sg4
g5
sg6
I95924
sg7
I00
sg8
F0.49333333333333335
sg9
g5
sg10
S'jim.fallon@enron.com'
p391
sg12
I374347
sg13
F0.11011092925986543
sg14
g5
sg15
I1604
sg16
g5
sg17
I75
sg18
I401481
sg19
g5
sg20
F0.3064312736443884
sg21
F0.04693441165348581
sg22
I42
sg23
I37
sg24
I1392142
sg25
F0.2737812404065248
sg26
I3676340
sg27
F0.49333333333333335
sg28
F0.02709646039246642
ssS'KOENIG MARK E'
p392
(dp393
g3
I2374
sg4
g5
sg6
I127017
sg7
I01
sg8
F0.2459016393442623
sg9
g5
sg10
S'mark.koenig@enron.com'
p394
sg12
I300000
sg13
F0.10271962214773522
sg14
g5
sg15
I2271
sg16
g5
sg17
I61
sg18
I150458
sg19
g5
sg20
F0.07944514501891552
sg21
F0.038533163764270205
sg22
I53
sg23
I15
sg24
I1248318
sg25
F0.2786048735079192
sg26
I1587421
sg27
F0.2459016393442623
sg28
F0.019276684729633994
ssS'SAVAGE FRANK'
p395
(dp396
g3
g5
sg4
g5
sg6
g5
sg7
I00
sg8
g31
sg9
F0.9656203288490284
sg10
g5
sg12
g5
sg13
g31
sg14
g5
sg15
g5
sg16
g5
sg17
g5
sg18
g5
sg19
I125034
sg20
g5
sg21
g5
sg22
g5
sg23
g5
sg24
g5
sg25
g5
sg26
I3750
sg27
g31
sg28
g5
ssS'IZZO LAWRENCE L'
p397
(dp398
g3
I496
sg4
g5
sg6
I28093
sg7
I00
sg8
F0.2631578947368421
sg9
g5
sg10
S'larry.izzo@enron.com'
p399
sg12
I312500
sg13
F0.2597374742621826
sg14
g5
sg15
I437
sg16
g5
sg17
I19
sg18
I1553729
sg19
g5
sg20
g5
sg21
F0.11799166606901858
sg22
I28
sg23
I5
sg24
I3654808
sg25
F0.07633998060823871
sg26
I1979596
sg27
F0.2631578947368421
sg28
F0.06276814408842346
ssS'TILNEY ELIZABETH A'
p400
(dp401
g3
I460
sg4
g5
sg6
g5
sg7
I00
sg8
F0.5789473684210527
sg9
F0.8361186486974794
sg10
S'elizabeth.tilney@enron.com'
p402
sg12
I275000
sg13
F0.10002312673450509
sg14
g5
sg15
I379
sg16
g5
sg17
I19
sg18
I152055
sg19
g5
sg20
F0.029003783102143757
sg21
F0.02321137509046219
sg22
I10
sg23
I11
sg24
I576792
sg25
F0.22224092777964333
sg26
I399393
sg27
F0.5789473684210527
sg28
F0.01693276143239582
ssS'MARTIN AMANDA K'
p403
(dp404
g3
I1522
sg4
I85430
sg6
I8211
sg7
I00
sg8
F0.0
sg9
g5
sg10
S'a..martin@enron.com'
p405
sg12
I5145434
sg13
F0.0241843039673442
sg14
g5
sg15
I477
sg16
g5
sg17
I230
sg18
I2818454
sg19
g5
sg20
g5
sg21
F0.04159443274503028
sg22
I8
sg23
I0
sg24
g5
sg25
F0.3142023495180418
sg26
I8407016
sg27
F0.0
sg28
F0.06000547896839418
ssS'BUY RICHARD B'
p406
(dp407
g3
I3523
sg4
I649584
sg6
g5
sg7
I00
sg8
F0.06742640075973409
sg9
F0.8019070925999978
sg10
S'rick.buy@enron.com'
p408
sg12
I769862
sg13
F0.20373714375441626
sg14
g5
sg15
I2333
sg16
g5
sg17
I1053
sg18
I400572
sg19
g5
sg20
F0.10466582597730138
sg21
F0.06959215407585133
sg22
I156
sg23
I71
sg24
I901657
sg25
F0.2971503833789019
sg26
I2355702
sg27
F0.06742640075973409
sg28
F0.07376571559552796
ssS'GRAMM WENDY L'
p409
(dp410
g3
g5
sg4
g5
sg6
g5
sg7
I00
sg8
g31
sg9
g5
sg10
g5
sg12
g5
sg13
g31
sg14
g5
sg15
g5
sg16
g5
sg17
g5
sg18
g5
sg19
I119292
sg20
g5
sg21
g5
sg22
g5
sg23
g5
sg24
g5
sg25
g5
sg26
I119292
sg27
g31
sg28
g5
ssS'CAUSEY RICHARD A'
p411
(dp412
g3
I1892
sg4
g5
sg6
I30674
sg7
I01
sg8
F0.24489795918367346
sg9
F0.9331629919684389
sg10
S'richard.causey@enron.com'
p413
sg12
I350000
sg13
F0.14104741127254733
sg14
g5
sg15
I1585
sg16
g5
sg17
I49
sg18
I307895
sg19
g5
sg20
F0.11727616645649433
sg21
F0.05039120821624864
sg22
I58
sg23
I12
sg24
I2502063
sg25
F0.3733517227968429
sg26
I1868758
sg27
F0.24489795918367346
sg28
g5
ssS'TAYLOR MITCHELL S'
p414
(dp415
g3
I533
sg4
I227449
sg6
g5
sg7
I00
sg8
F0.0
sg9
g5
sg10
S'mitchell.taylor@enron.com'
p416
sg12
g5
sg13
F0.0
sg14
g5
sg15
I300
sg16
g5
sg17
I29
sg18
g5
sg19
g5
sg20
F0.06683480453972257
sg21
F0.07571624048924559
sg22
I0
sg23
I0
sg24
I563798
sg25
F0.23833410906380287
sg26
I1092663
sg27
F0.0
sg28
F0.09235812627202039
ssS'DONAHUE JR JEFFREY M'
p417
(dp418
g3
I865
sg4
g5
sg6
I96268
sg7
I00
sg8
F0.5
sg9
F0.9146103969313437
sg10
S'jeff.donahue@enron.com'
p419
sg12
g5
sg13
F1.0
sg14
g5
sg15
I772
sg16
g5
sg17
I22
sg18
I891
sg19
g5
sg20
F0.09205548549810845
sg21
F0.021437704966129654
sg22
I188
sg23
I11
sg24
I315068
sg25
F0.25038598967753317
sg26
I875760
sg27
F0.5
sg28
F0.022019459685885097
ssS'GLISAN JR BEN F'
p420
(dp421
g3
I873
sg4
g5
sg6
I125978
sg7
I01
sg8
F0.375
sg9
g5
sg10
S'ben.glisan@enron.com'
p422
sg12
I71023
sg13
F0.27406107577197725
sg14
g5
sg15
I874
sg16
g5
sg17
I16
sg18
I200308
sg19
g5
sg20
F0.06683480453972257
sg21
F0.015275640733086016
sg22
I52
sg23
I6
sg24
I393818
sg25
F0.24712161983325245
sg26
I1272284
sg27
F0.375
sg28
F0.010918476800191599
ss.