(lp0
S'poi'
p1
aS'salary'
p2
aS'exercised_stock_options'
p3
aS'bonus'
p4
aS'total_stock_value'
p5
aS'deferred_income'
p6
aS'fraction_to_poi'
p7
aS'fraction_from_poi'
p8
aS'fraction_shared_receipt'
p9
a.